
main.elf:     file format elf32-avr

Sections:
Idx Name          Size      VMA       LMA       File off  Algn
  0 .text         0000269e  00000000  00000000  00000074  2**1
                  CONTENTS, ALLOC, LOAD, READONLY, CODE
  1 .data         0000015a  00800060  0000269e  00002712  2**0
                  CONTENTS, ALLOC, LOAD, DATA
  2 .debug_aranges 000000c0  00000000  00000000  0000286c  2**0
                  CONTENTS, READONLY, DEBUGGING
  3 .debug_pubnames 00000283  00000000  00000000  0000292c  2**0
                  CONTENTS, READONLY, DEBUGGING
  4 .debug_info   00001946  00000000  00000000  00002baf  2**0
                  CONTENTS, READONLY, DEBUGGING
  5 .debug_abbrev 00000685  00000000  00000000  000044f5  2**0
                  CONTENTS, READONLY, DEBUGGING
  6 .debug_line   00000d11  00000000  00000000  00004b7a  2**0
                  CONTENTS, READONLY, DEBUGGING
  7 .debug_frame  000001e0  00000000  00000000  0000588c  2**2
                  CONTENTS, READONLY, DEBUGGING
  8 .debug_str    0000049e  00000000  00000000  00005a6c  2**0
                  CONTENTS, READONLY, DEBUGGING
  9 .debug_loc    00001da2  00000000  00000000  00005f0a  2**0
                  CONTENTS, READONLY, DEBUGGING
 10 .debug_ranges 00000078  00000000  00000000  00007cac  2**0
                  CONTENTS, READONLY, DEBUGGING

Disassembly of section .text:

00000000 <__vectors>:
       0:	0c 94 2a 00 	jmp	0x54	; 0x54 <__ctors_end>
       4:	0c 94 3f 00 	jmp	0x7e	; 0x7e <__bad_interrupt>
       8:	0c 94 3f 00 	jmp	0x7e	; 0x7e <__bad_interrupt>
       c:	0c 94 3f 00 	jmp	0x7e	; 0x7e <__bad_interrupt>
      10:	0c 94 3f 00 	jmp	0x7e	; 0x7e <__bad_interrupt>
      14:	0c 94 3f 00 	jmp	0x7e	; 0x7e <__bad_interrupt>
      18:	0c 94 3f 00 	jmp	0x7e	; 0x7e <__bad_interrupt>
      1c:	0c 94 3f 00 	jmp	0x7e	; 0x7e <__bad_interrupt>
      20:	0c 94 3f 00 	jmp	0x7e	; 0x7e <__bad_interrupt>
      24:	0c 94 3f 00 	jmp	0x7e	; 0x7e <__bad_interrupt>
      28:	0c 94 3f 00 	jmp	0x7e	; 0x7e <__bad_interrupt>
      2c:	0c 94 3f 00 	jmp	0x7e	; 0x7e <__bad_interrupt>
      30:	0c 94 3f 00 	jmp	0x7e	; 0x7e <__bad_interrupt>
      34:	0c 94 3f 00 	jmp	0x7e	; 0x7e <__bad_interrupt>
      38:	0c 94 3f 00 	jmp	0x7e	; 0x7e <__bad_interrupt>
      3c:	0c 94 3f 00 	jmp	0x7e	; 0x7e <__bad_interrupt>
      40:	0c 94 3f 00 	jmp	0x7e	; 0x7e <__bad_interrupt>
      44:	0c 94 3f 00 	jmp	0x7e	; 0x7e <__bad_interrupt>
      48:	0c 94 3f 00 	jmp	0x7e	; 0x7e <__bad_interrupt>
      4c:	0c 94 3f 00 	jmp	0x7e	; 0x7e <__bad_interrupt>
      50:	0c 94 3f 00 	jmp	0x7e	; 0x7e <__bad_interrupt>

00000054 <__ctors_end>:
      54:	11 24       	eor	r1, r1
      56:	1f be       	out	0x3f, r1	; 63
      58:	cf e5       	ldi	r28, 0x5F	; 95
      5a:	d8 e0       	ldi	r29, 0x08	; 8
      5c:	de bf       	out	0x3e, r29	; 62
      5e:	cd bf       	out	0x3d, r28	; 61

00000060 <__do_copy_data>:
      60:	11 e0       	ldi	r17, 0x01	; 1
      62:	a0 e6       	ldi	r26, 0x60	; 96
      64:	b0 e0       	ldi	r27, 0x00	; 0
      66:	ee e9       	ldi	r30, 0x9E	; 158
      68:	f6 e2       	ldi	r31, 0x26	; 38
      6a:	02 c0       	rjmp	.+4      	; 0x70 <.do_copy_data_start>

0000006c <.do_copy_data_loop>:
      6c:	05 90       	lpm	r0, Z+
      6e:	0d 92       	st	X+, r0

00000070 <.do_copy_data_start>:
      70:	aa 3b       	cpi	r26, 0xBA	; 186
      72:	b1 07       	cpc	r27, r17
      74:	d9 f7       	brne	.-10     	; 0x6c <.do_copy_data_loop>
      76:	0e 94 55 00 	call	0xaa	; 0xaa <main>
      7a:	0c 94 4d 13 	jmp	0x269a	; 0x269a <_exit>

0000007e <__bad_interrupt>:
      7e:	0c 94 00 00 	jmp	0	; 0x0 <__vectors>

00000082 <LedFun>:
#include "..\HAL\LCD\LCD_interface.h"
#include "..\MCAL\DIO\DIO_interface.h"



void LedFun(u8 level){
      82:	0f 93       	push	r16
      84:	1f 93       	push	r17
      86:	08 2f       	mov	r16, r24
	DIO_voidSetPortValue(DIO_u8_PORTD,0x00);
      88:	83 e0       	ldi	r24, 0x03	; 3
      8a:	60 e0       	ldi	r22, 0x00	; 0
      8c:	0e 94 b4 01 	call	0x368	; 0x368 <DIO_voidSetPortValue>
      90:	10 e0       	ldi	r17, 0x00	; 0
      92:	06 c0       	rjmp	.+12     	; 0xa0 <LedFun+0x1e>
	for(u8 i = 0;i< level;i++)
		DIO_voidSetPinValue(DIO_u8_PORTD,i,DIO_u8_HIGH);
      94:	83 e0       	ldi	r24, 0x03	; 3
      96:	61 2f       	mov	r22, r17
      98:	41 e0       	ldi	r20, 0x01	; 1
      9a:	0e 94 c5 01 	call	0x38a	; 0x38a <DIO_voidSetPinValue>



void LedFun(u8 level){
	DIO_voidSetPortValue(DIO_u8_PORTD,0x00);
	for(u8 i = 0;i< level;i++)
      9e:	1f 5f       	subi	r17, 0xFF	; 255
      a0:	10 17       	cp	r17, r16
      a2:	c0 f3       	brcs	.-16     	; 0x94 <LedFun+0x12>
		DIO_voidSetPinValue(DIO_u8_PORTD,i,DIO_u8_HIGH);
}
      a4:	1f 91       	pop	r17
      a6:	0f 91       	pop	r16
      a8:	08 95       	ret

000000aa <main>:


// Main Function
int main(void){
      aa:	cf 92       	push	r12
      ac:	df 92       	push	r13
      ae:	ef 92       	push	r14
      b0:	ff 92       	push	r15
      b2:	0f 93       	push	r16
      b4:	1f 93       	push	r17


	DIO_voidSetPortDirection(DIO_u8_PORTD,0xff);
      b6:	83 e0       	ldi	r24, 0x03	; 3
      b8:	6f ef       	ldi	r22, 0xFF	; 255
      ba:	0e 94 30 01 	call	0x260	; 0x260 <DIO_voidSetPortDirection>
	DIO_voidSetPinDirection(DIO_u8_PORTC,DIO_PIN_7,DIO_u8_OUTPUT);
      be:	82 e0       	ldi	r24, 0x02	; 2
      c0:	67 e0       	ldi	r22, 0x07	; 7
      c2:	41 e0       	ldi	r20, 0x01	; 1
      c4:	0e 94 41 01 	call	0x282	; 0x282 <DIO_voidSetPinDirection>
	DIO_voidSetPinDirection(DIO_u8_PORTC,DIO_PIN_6,DIO_u8_OUTPUT);
      c8:	82 e0       	ldi	r24, 0x02	; 2
      ca:	66 e0       	ldi	r22, 0x06	; 6
      cc:	41 e0       	ldi	r20, 0x01	; 1
      ce:	0e 94 41 01 	call	0x282	; 0x282 <DIO_voidSetPinDirection>



	ADC_voidInit();
      d2:	0e 94 d7 02 	call	0x5ae	; 0x5ae <ADC_voidInit>
	ADC_voidEnable();
      d6:	0e 94 dc 02 	call	0x5b8	; 0x5b8 <ADC_voidEnable>
	LCD_voidInit();
      da:	0e 94 28 04 	call	0x850	; 0x850 <LCD_voidInit>

	while(1){

		LCD_voidMoveCursor(1,1);
      de:	81 e0       	ldi	r24, 0x01	; 1
      e0:	61 e0       	ldi	r22, 0x01	; 1
      e2:	0e 94 39 03 	call	0x672	; 0x672 <LCD_voidMoveCursor>
		u16 LOC_Ret = ADC_u16GetValue(ADC_u8_ADC0_CHANNEL) * 5.0 * 100 / 1023.0;
      e6:	80 e0       	ldi	r24, 0x00	; 0
      e8:	0e 94 e0 02 	call	0x5c0	; 0x5c0 <ADC_u16GetValue>
      ec:	a0 e0       	ldi	r26, 0x00	; 0
      ee:	b0 e0       	ldi	r27, 0x00	; 0
      f0:	bc 01       	movw	r22, r24
      f2:	cd 01       	movw	r24, r26
      f4:	0e 94 d0 11 	call	0x23a0	; 0x23a0 <__floatunsisf>
      f8:	20 e0       	ldi	r18, 0x00	; 0
      fa:	30 e0       	ldi	r19, 0x00	; 0
      fc:	40 ea       	ldi	r20, 0xA0	; 160
      fe:	50 e4       	ldi	r21, 0x40	; 64
     100:	0e 94 5e 12 	call	0x24bc	; 0x24bc <__mulsf3>
     104:	20 e0       	ldi	r18, 0x00	; 0
     106:	30 e0       	ldi	r19, 0x00	; 0
     108:	48 ec       	ldi	r20, 0xC8	; 200
     10a:	52 e4       	ldi	r21, 0x42	; 66
     10c:	0e 94 5e 12 	call	0x24bc	; 0x24bc <__mulsf3>
     110:	20 e0       	ldi	r18, 0x00	; 0
     112:	30 ec       	ldi	r19, 0xC0	; 192
     114:	4f e7       	ldi	r20, 0x7F	; 127
     116:	54 e4       	ldi	r21, 0x44	; 68
     118:	0e 94 3c 11 	call	0x2278	; 0x2278 <__divsf3>
     11c:	0e 94 a4 11 	call	0x2348	; 0x2348 <__fixunssfsi>
     120:	7b 01       	movw	r14, r22
     122:	8c 01       	movw	r16, r24
		LCD_voidWriteString("Temprature=");
     124:	80 e6       	ldi	r24, 0x60	; 96
     126:	90 e0       	ldi	r25, 0x00	; 0
     128:	0e 94 1b 04 	call	0x836	; 0x836 <LCD_voidWriteString>
		LCD_voidWriteInteger(LOC_Ret);
     12c:	97 01       	movw	r18, r14
     12e:	40 e0       	ldi	r20, 0x00	; 0
     130:	50 e0       	ldi	r21, 0x00	; 0
     132:	60 e0       	ldi	r22, 0x00	; 0
     134:	70 e0       	ldi	r23, 0x00	; 0
     136:	80 e0       	ldi	r24, 0x00	; 0
     138:	90 e0       	ldi	r25, 0x00	; 0
     13a:	0e 94 90 03 	call	0x720	; 0x720 <LCD_voidWriteInteger>
		LCD_voidWriteString(" C      ");
     13e:	8c e6       	ldi	r24, 0x6C	; 108
     140:	90 e0       	ldi	r25, 0x00	; 0
     142:	0e 94 1b 04 	call	0x836	; 0x836 <LCD_voidWriteString>
		if(LOC_Ret > 40){
     146:	89 e2       	ldi	r24, 0x29	; 41
     148:	e8 16       	cp	r14, r24
     14a:	f1 04       	cpc	r15, r1
     14c:	20 f0       	brcs	.+8      	; 0x156 <main+0xac>
			DIO_voidSetPinValue(DIO_u8_PORTC,DIO_PIN_7,DIO_u8_HIGH);
     14e:	82 e0       	ldi	r24, 0x02	; 2
     150:	67 e0       	ldi	r22, 0x07	; 7
     152:	41 e0       	ldi	r20, 0x01	; 1
     154:	03 c0       	rjmp	.+6      	; 0x15c <main+0xb2>
		}
		else{
			DIO_voidSetPinValue(DIO_u8_PORTC,DIO_PIN_7,DIO_u8_LOW);
     156:	82 e0       	ldi	r24, 0x02	; 2
     158:	67 e0       	ldi	r22, 0x07	; 7
     15a:	40 e0       	ldi	r20, 0x00	; 0
     15c:	0e 94 c5 01 	call	0x38a	; 0x38a <DIO_voidSetPinValue>
		}

		LOC_Ret = ADC_u16GetValue(ADC_u8_ADC1_CHANNEL) * 500.0 / 1023.0;
     160:	81 e0       	ldi	r24, 0x01	; 1
     162:	0e 94 e0 02 	call	0x5c0	; 0x5c0 <ADC_u16GetValue>
     166:	a0 e0       	ldi	r26, 0x00	; 0
     168:	b0 e0       	ldi	r27, 0x00	; 0
     16a:	bc 01       	movw	r22, r24
     16c:	cd 01       	movw	r24, r26
     16e:	0e 94 d0 11 	call	0x23a0	; 0x23a0 <__floatunsisf>
     172:	20 e0       	ldi	r18, 0x00	; 0
     174:	30 e0       	ldi	r19, 0x00	; 0
     176:	4a ef       	ldi	r20, 0xFA	; 250
     178:	53 e4       	ldi	r21, 0x43	; 67
     17a:	0e 94 5e 12 	call	0x24bc	; 0x24bc <__mulsf3>
     17e:	20 e0       	ldi	r18, 0x00	; 0
     180:	30 ec       	ldi	r19, 0xC0	; 192
     182:	4f e7       	ldi	r20, 0x7F	; 127
     184:	54 e4       	ldi	r21, 0x44	; 68
     186:	0e 94 3c 11 	call	0x2278	; 0x2278 <__divsf3>
     18a:	0e 94 a4 11 	call	0x2348	; 0x2348 <__fixunssfsi>
     18e:	7b 01       	movw	r14, r22
     190:	8c 01       	movw	r16, r24
		LCD_voidMoveCursor(2,1);
     192:	82 e0       	ldi	r24, 0x02	; 2
     194:	61 e0       	ldi	r22, 0x01	; 1
     196:	0e 94 39 03 	call	0x672	; 0x672 <LCD_voidMoveCursor>
		LCD_voidWriteString("Volatage=");
     19a:	85 e7       	ldi	r24, 0x75	; 117
     19c:	90 e0       	ldi	r25, 0x00	; 0
     19e:	0e 94 1b 04 	call	0x836	; 0x836 <LCD_voidWriteString>
		LCD_voidWriteInteger(LOC_Ret / 100);
     1a2:	c7 01       	movw	r24, r14
     1a4:	64 e6       	ldi	r22, 0x64	; 100
     1a6:	70 e0       	ldi	r23, 0x00	; 0
     1a8:	0e 94 c1 12 	call	0x2582	; 0x2582 <__udivmodhi4>
     1ac:	9b 01       	movw	r18, r22
     1ae:	40 e0       	ldi	r20, 0x00	; 0
     1b0:	50 e0       	ldi	r21, 0x00	; 0
     1b2:	60 e0       	ldi	r22, 0x00	; 0
     1b4:	70 e0       	ldi	r23, 0x00	; 0
     1b6:	80 e0       	ldi	r24, 0x00	; 0
     1b8:	90 e0       	ldi	r25, 0x00	; 0
     1ba:	0e 94 90 03 	call	0x720	; 0x720 <LCD_voidWriteInteger>
		LCD_voidWriteString(".");
     1be:	8f e7       	ldi	r24, 0x7F	; 127
     1c0:	90 e0       	ldi	r25, 0x00	; 0
     1c2:	0e 94 1b 04 	call	0x836	; 0x836 <LCD_voidWriteString>
		LCD_voidWriteInteger(LOC_Ret % 100);
     1c6:	c7 01       	movw	r24, r14
     1c8:	64 e6       	ldi	r22, 0x64	; 100
     1ca:	70 e0       	ldi	r23, 0x00	; 0
     1cc:	0e 94 c1 12 	call	0x2582	; 0x2582 <__udivmodhi4>
     1d0:	9c 01       	movw	r18, r24
     1d2:	40 e0       	ldi	r20, 0x00	; 0
     1d4:	50 e0       	ldi	r21, 0x00	; 0
     1d6:	60 e0       	ldi	r22, 0x00	; 0
     1d8:	70 e0       	ldi	r23, 0x00	; 0
     1da:	80 e0       	ldi	r24, 0x00	; 0
     1dc:	90 e0       	ldi	r25, 0x00	; 0
     1de:	0e 94 90 03 	call	0x720	; 0x720 <LCD_voidWriteInteger>
		LCD_voidWriteString(" V     ");
     1e2:	81 e8       	ldi	r24, 0x81	; 129
     1e4:	90 e0       	ldi	r25, 0x00	; 0
     1e6:	0e 94 1b 04 	call	0x836	; 0x836 <LCD_voidWriteString>

		if(LOC_Ret > 250){
     1ea:	8b ef       	ldi	r24, 0xFB	; 251
     1ec:	e8 16       	cp	r14, r24
     1ee:	f1 04       	cpc	r15, r1
     1f0:	20 f0       	brcs	.+8      	; 0x1fa <main+0x150>
			DIO_voidSetPinValue(DIO_u8_PORTC,DIO_PIN_6,DIO_u8_HIGH);
     1f2:	82 e0       	ldi	r24, 0x02	; 2
     1f4:	66 e0       	ldi	r22, 0x06	; 6
     1f6:	41 e0       	ldi	r20, 0x01	; 1
     1f8:	03 c0       	rjmp	.+6      	; 0x200 <main+0x156>
		}
		else{
			DIO_voidSetPinValue(DIO_u8_PORTC,DIO_PIN_6,DIO_u8_LOW);
     1fa:	82 e0       	ldi	r24, 0x02	; 2
     1fc:	66 e0       	ldi	r22, 0x06	; 6
     1fe:	40 e0       	ldi	r20, 0x00	; 0
     200:	0e 94 c5 01 	call	0x38a	; 0x38a <DIO_voidSetPinValue>
		}
		
		LOC_Ret = ADC_u16GetValue(ADC_u8_ADC2_CHANNEL) * 500.0 / 1023.0;
     204:	82 e0       	ldi	r24, 0x02	; 2
     206:	0e 94 e0 02 	call	0x5c0	; 0x5c0 <ADC_u16GetValue>
		LedFun(8.0 * LOC_Ret / 500.0);
     20a:	a0 e0       	ldi	r26, 0x00	; 0
     20c:	b0 e0       	ldi	r27, 0x00	; 0
     20e:	bc 01       	movw	r22, r24
     210:	cd 01       	movw	r24, r26
     212:	0e 94 d0 11 	call	0x23a0	; 0x23a0 <__floatunsisf>
     216:	20 e0       	ldi	r18, 0x00	; 0
     218:	30 e0       	ldi	r19, 0x00	; 0
     21a:	4a ef       	ldi	r20, 0xFA	; 250
     21c:	53 e4       	ldi	r21, 0x43	; 67
     21e:	0e 94 5e 12 	call	0x24bc	; 0x24bc <__mulsf3>
     222:	20 e0       	ldi	r18, 0x00	; 0
     224:	30 ec       	ldi	r19, 0xC0	; 192
     226:	4f e7       	ldi	r20, 0x7F	; 127
     228:	54 e4       	ldi	r21, 0x44	; 68
     22a:	0e 94 3c 11 	call	0x2278	; 0x2278 <__divsf3>
     22e:	0e 94 a4 11 	call	0x2348	; 0x2348 <__fixunssfsi>
     232:	80 e0       	ldi	r24, 0x00	; 0
     234:	90 e0       	ldi	r25, 0x00	; 0
     236:	0e 94 d0 11 	call	0x23a0	; 0x23a0 <__floatunsisf>
     23a:	20 e0       	ldi	r18, 0x00	; 0
     23c:	30 e0       	ldi	r19, 0x00	; 0
     23e:	40 e0       	ldi	r20, 0x00	; 0
     240:	51 e4       	ldi	r21, 0x41	; 65
     242:	0e 94 5e 12 	call	0x24bc	; 0x24bc <__mulsf3>
     246:	20 e0       	ldi	r18, 0x00	; 0
     248:	30 e0       	ldi	r19, 0x00	; 0
     24a:	4a ef       	ldi	r20, 0xFA	; 250
     24c:	53 e4       	ldi	r21, 0x43	; 67
     24e:	0e 94 3c 11 	call	0x2278	; 0x2278 <__divsf3>
     252:	0e 94 a4 11 	call	0x2348	; 0x2348 <__fixunssfsi>
     256:	dc 01       	movw	r26, r24
     258:	cb 01       	movw	r24, r22
     25a:	0e 94 41 00 	call	0x82	; 0x82 <LedFun>
     25e:	3f cf       	rjmp	.-386    	; 0xde <main+0x34>

00000260 <DIO_voidSetPortDirection>:

    
void DIO_voidSetPortDirection(u8 Copy_u8Port,u8 Copy_u8Direction){
    // if(Copy_u8Direction)
    //     Copy_u8Direction = 0xff;
    switch (Copy_u8Port){
     260:	81 30       	cpi	r24, 0x01	; 1
     262:	49 f0       	breq	.+18     	; 0x276 <DIO_voidSetPortDirection+0x16>
     264:	81 30       	cpi	r24, 0x01	; 1
     266:	28 f0       	brcs	.+10     	; 0x272 <DIO_voidSetPortDirection+0x12>
     268:	82 30       	cpi	r24, 0x02	; 2
     26a:	39 f0       	breq	.+14     	; 0x27a <DIO_voidSetPortDirection+0x1a>
     26c:	83 30       	cpi	r24, 0x03	; 3
     26e:	41 f4       	brne	.+16     	; 0x280 <DIO_voidSetPortDirection+0x20>
     270:	06 c0       	rjmp	.+12     	; 0x27e <DIO_voidSetPortDirection+0x1e>
        case DIO_u8_PORTA:
            DDRA = Copy_u8Direction;
     272:	6a bb       	out	0x1a, r22	; 26
     274:	08 95       	ret
            break;
        case DIO_u8_PORTB:
            DDRB = Copy_u8Direction;
     276:	67 bb       	out	0x17, r22	; 23
     278:	08 95       	ret
            break;
        case DIO_u8_PORTC:
            DDRC = Copy_u8Direction;
     27a:	64 bb       	out	0x14, r22	; 20
     27c:	08 95       	ret
            break;
        case DIO_u8_PORTD:
            DDRD = Copy_u8Direction;
     27e:	61 bb       	out	0x11, r22	; 17
     280:	08 95       	ret

00000282 <DIO_voidSetPinDirection>:
    }    

} 
void DIO_voidSetPinDirection(u8 Copy_u8Port,u8 Copy_u8Pin,u8 Copy_u8Direction){
    switch(Copy_u8Port){
     282:	81 30       	cpi	r24, 0x01	; 1
     284:	11 f1       	breq	.+68     	; 0x2ca <DIO_voidSetPinDirection+0x48>
     286:	81 30       	cpi	r24, 0x01	; 1
     288:	30 f0       	brcs	.+12     	; 0x296 <DIO_voidSetPinDirection+0x14>
     28a:	82 30       	cpi	r24, 0x02	; 2
     28c:	c1 f1       	breq	.+112    	; 0x2fe <DIO_voidSetPinDirection+0x7c>
     28e:	83 30       	cpi	r24, 0x03	; 3
     290:	09 f0       	breq	.+2      	; 0x294 <DIO_voidSetPinDirection+0x12>
     292:	69 c0       	rjmp	.+210    	; 0x366 <DIO_voidSetPinDirection+0xe4>
     294:	4e c0       	rjmp	.+156    	; 0x332 <DIO_voidSetPinDirection+0xb0>
        case DIO_u8_PORTA :
            write_bit(DDRA,Copy_u8Pin,Copy_u8Direction);
     296:	44 23       	and	r20, r20
     298:	59 f0       	breq	.+22     	; 0x2b0 <DIO_voidSetPinDirection+0x2e>
     29a:	2a b3       	in	r18, 0x1a	; 26
     29c:	81 e0       	ldi	r24, 0x01	; 1
     29e:	90 e0       	ldi	r25, 0x00	; 0
     2a0:	02 c0       	rjmp	.+4      	; 0x2a6 <DIO_voidSetPinDirection+0x24>
     2a2:	88 0f       	add	r24, r24
     2a4:	99 1f       	adc	r25, r25
     2a6:	6a 95       	dec	r22
     2a8:	e2 f7       	brpl	.-8      	; 0x2a2 <DIO_voidSetPinDirection+0x20>
     2aa:	28 2b       	or	r18, r24
     2ac:	2a bb       	out	0x1a, r18	; 26
     2ae:	0b c0       	rjmp	.+22     	; 0x2c6 <DIO_voidSetPinDirection+0x44>
     2b0:	2a b3       	in	r18, 0x1a	; 26
     2b2:	81 e0       	ldi	r24, 0x01	; 1
     2b4:	90 e0       	ldi	r25, 0x00	; 0
     2b6:	02 c0       	rjmp	.+4      	; 0x2bc <DIO_voidSetPinDirection+0x3a>
     2b8:	88 0f       	add	r24, r24
     2ba:	99 1f       	adc	r25, r25
     2bc:	6a 95       	dec	r22
     2be:	e2 f7       	brpl	.-8      	; 0x2b8 <DIO_voidSetPinDirection+0x36>
     2c0:	80 95       	com	r24
     2c2:	82 23       	and	r24, r18
     2c4:	8a bb       	out	0x1a, r24	; 26
     2c6:	8a b3       	in	r24, 0x1a	; 26
     2c8:	08 95       	ret
            break;
        case DIO_u8_PORTB :
            write_bit(DDRB,Copy_u8Pin,Copy_u8Direction);
     2ca:	44 23       	and	r20, r20
     2cc:	59 f0       	breq	.+22     	; 0x2e4 <DIO_voidSetPinDirection+0x62>
     2ce:	27 b3       	in	r18, 0x17	; 23
     2d0:	81 e0       	ldi	r24, 0x01	; 1
     2d2:	90 e0       	ldi	r25, 0x00	; 0
     2d4:	02 c0       	rjmp	.+4      	; 0x2da <DIO_voidSetPinDirection+0x58>
     2d6:	88 0f       	add	r24, r24
     2d8:	99 1f       	adc	r25, r25
     2da:	6a 95       	dec	r22
     2dc:	e2 f7       	brpl	.-8      	; 0x2d6 <DIO_voidSetPinDirection+0x54>
     2de:	28 2b       	or	r18, r24
     2e0:	27 bb       	out	0x17, r18	; 23
     2e2:	0b c0       	rjmp	.+22     	; 0x2fa <DIO_voidSetPinDirection+0x78>
     2e4:	27 b3       	in	r18, 0x17	; 23
     2e6:	81 e0       	ldi	r24, 0x01	; 1
     2e8:	90 e0       	ldi	r25, 0x00	; 0
     2ea:	02 c0       	rjmp	.+4      	; 0x2f0 <DIO_voidSetPinDirection+0x6e>
     2ec:	88 0f       	add	r24, r24
     2ee:	99 1f       	adc	r25, r25
     2f0:	6a 95       	dec	r22
     2f2:	e2 f7       	brpl	.-8      	; 0x2ec <DIO_voidSetPinDirection+0x6a>
     2f4:	80 95       	com	r24
     2f6:	82 23       	and	r24, r18
     2f8:	87 bb       	out	0x17, r24	; 23
     2fa:	87 b3       	in	r24, 0x17	; 23
     2fc:	08 95       	ret
            break;
        case DIO_u8_PORTC :
            write_bit(DDRC,Copy_u8Pin,Copy_u8Direction);
     2fe:	44 23       	and	r20, r20
     300:	59 f0       	breq	.+22     	; 0x318 <DIO_voidSetPinDirection+0x96>
     302:	24 b3       	in	r18, 0x14	; 20
     304:	81 e0       	ldi	r24, 0x01	; 1
     306:	90 e0       	ldi	r25, 0x00	; 0
     308:	02 c0       	rjmp	.+4      	; 0x30e <DIO_voidSetPinDirection+0x8c>
     30a:	88 0f       	add	r24, r24
     30c:	99 1f       	adc	r25, r25
     30e:	6a 95       	dec	r22
     310:	e2 f7       	brpl	.-8      	; 0x30a <DIO_voidSetPinDirection+0x88>
     312:	28 2b       	or	r18, r24
     314:	24 bb       	out	0x14, r18	; 20
     316:	0b c0       	rjmp	.+22     	; 0x32e <DIO_voidSetPinDirection+0xac>
     318:	24 b3       	in	r18, 0x14	; 20
     31a:	81 e0       	ldi	r24, 0x01	; 1
     31c:	90 e0       	ldi	r25, 0x00	; 0
     31e:	02 c0       	rjmp	.+4      	; 0x324 <DIO_voidSetPinDirection+0xa2>
     320:	88 0f       	add	r24, r24
     322:	99 1f       	adc	r25, r25
     324:	6a 95       	dec	r22
     326:	e2 f7       	brpl	.-8      	; 0x320 <DIO_voidSetPinDirection+0x9e>
     328:	80 95       	com	r24
     32a:	82 23       	and	r24, r18
     32c:	84 bb       	out	0x14, r24	; 20
     32e:	84 b3       	in	r24, 0x14	; 20
     330:	08 95       	ret
            break;
        case DIO_u8_PORTD :
            write_bit(DDRD,Copy_u8Pin,Copy_u8Direction);
     332:	44 23       	and	r20, r20
     334:	61 f0       	breq	.+24     	; 0x34e <DIO_voidSetPinDirection+0xcc>
     336:	21 b3       	in	r18, 0x11	; 17
     338:	81 e0       	ldi	r24, 0x01	; 1
     33a:	90 e0       	ldi	r25, 0x00	; 0
     33c:	02 c0       	rjmp	.+4      	; 0x342 <DIO_voidSetPinDirection+0xc0>
     33e:	88 0f       	add	r24, r24
     340:	99 1f       	adc	r25, r25
     342:	6a 95       	dec	r22
     344:	e2 f7       	brpl	.-8      	; 0x33e <DIO_voidSetPinDirection+0xbc>
     346:	28 2b       	or	r18, r24
     348:	21 bb       	out	0x11, r18	; 17
     34a:	81 b3       	in	r24, 0x11	; 17
     34c:	08 95       	ret
     34e:	21 b3       	in	r18, 0x11	; 17
     350:	81 e0       	ldi	r24, 0x01	; 1
     352:	90 e0       	ldi	r25, 0x00	; 0
     354:	02 c0       	rjmp	.+4      	; 0x35a <DIO_voidSetPinDirection+0xd8>
     356:	88 0f       	add	r24, r24
     358:	99 1f       	adc	r25, r25
     35a:	6a 95       	dec	r22
     35c:	e2 f7       	brpl	.-8      	; 0x356 <DIO_voidSetPinDirection+0xd4>
     35e:	80 95       	com	r24
     360:	82 23       	and	r24, r18
     362:	81 bb       	out	0x11, r24	; 17
     364:	81 b3       	in	r24, 0x11	; 17
     366:	08 95       	ret

00000368 <DIO_voidSetPortValue>:
}

void DIO_voidSetPortValue(u8 Copy_u8Port,u8 Copy_u8Value){
    //if(Copy_u8Value)
        //Copy_u8Value = 0xff;
    switch (Copy_u8Port){
     368:	81 30       	cpi	r24, 0x01	; 1
     36a:	49 f0       	breq	.+18     	; 0x37e <DIO_voidSetPortValue+0x16>
     36c:	81 30       	cpi	r24, 0x01	; 1
     36e:	28 f0       	brcs	.+10     	; 0x37a <DIO_voidSetPortValue+0x12>
     370:	82 30       	cpi	r24, 0x02	; 2
     372:	39 f0       	breq	.+14     	; 0x382 <DIO_voidSetPortValue+0x1a>
     374:	83 30       	cpi	r24, 0x03	; 3
     376:	41 f4       	brne	.+16     	; 0x388 <DIO_voidSetPortValue+0x20>
     378:	06 c0       	rjmp	.+12     	; 0x386 <DIO_voidSetPortValue+0x1e>
        case DIO_u8_PORTA:
            PORTA = Copy_u8Value;
     37a:	6b bb       	out	0x1b, r22	; 27
     37c:	08 95       	ret
            break;
        case DIO_u8_PORTB:
            PORTB = Copy_u8Value;
     37e:	68 bb       	out	0x18, r22	; 24
     380:	08 95       	ret
            break;
        case DIO_u8_PORTC:
            PORTC = Copy_u8Value;
     382:	65 bb       	out	0x15, r22	; 21
     384:	08 95       	ret
            break;
        case DIO_u8_PORTD:
            PORTD = Copy_u8Value;
     386:	62 bb       	out	0x12, r22	; 18
     388:	08 95       	ret

0000038a <DIO_voidSetPinValue>:
    }    
}
void DIO_voidSetPinValue(u8 Copy_u8Port,u8 Copy_u8Pin,u8 Copy_u8Value){
    switch(Copy_u8Port){
     38a:	81 30       	cpi	r24, 0x01	; 1
     38c:	11 f1       	breq	.+68     	; 0x3d2 <DIO_voidSetPinValue+0x48>
     38e:	81 30       	cpi	r24, 0x01	; 1
     390:	30 f0       	brcs	.+12     	; 0x39e <DIO_voidSetPinValue+0x14>
     392:	82 30       	cpi	r24, 0x02	; 2
     394:	c1 f1       	breq	.+112    	; 0x406 <DIO_voidSetPinValue+0x7c>
     396:	83 30       	cpi	r24, 0x03	; 3
     398:	09 f0       	breq	.+2      	; 0x39c <DIO_voidSetPinValue+0x12>
     39a:	69 c0       	rjmp	.+210    	; 0x46e <DIO_voidSetPinValue+0xe4>
     39c:	4e c0       	rjmp	.+156    	; 0x43a <DIO_voidSetPinValue+0xb0>
        case DIO_u8_PORTA :
            write_bit(PORTA,Copy_u8Pin,Copy_u8Value);
     39e:	44 23       	and	r20, r20
     3a0:	59 f0       	breq	.+22     	; 0x3b8 <DIO_voidSetPinValue+0x2e>
     3a2:	2b b3       	in	r18, 0x1b	; 27
     3a4:	81 e0       	ldi	r24, 0x01	; 1
     3a6:	90 e0       	ldi	r25, 0x00	; 0
     3a8:	02 c0       	rjmp	.+4      	; 0x3ae <DIO_voidSetPinValue+0x24>
     3aa:	88 0f       	add	r24, r24
     3ac:	99 1f       	adc	r25, r25
     3ae:	6a 95       	dec	r22
     3b0:	e2 f7       	brpl	.-8      	; 0x3aa <DIO_voidSetPinValue+0x20>
     3b2:	28 2b       	or	r18, r24
     3b4:	2b bb       	out	0x1b, r18	; 27
     3b6:	0b c0       	rjmp	.+22     	; 0x3ce <DIO_voidSetPinValue+0x44>
     3b8:	2b b3       	in	r18, 0x1b	; 27
     3ba:	81 e0       	ldi	r24, 0x01	; 1
     3bc:	90 e0       	ldi	r25, 0x00	; 0
     3be:	02 c0       	rjmp	.+4      	; 0x3c4 <DIO_voidSetPinValue+0x3a>
     3c0:	88 0f       	add	r24, r24
     3c2:	99 1f       	adc	r25, r25
     3c4:	6a 95       	dec	r22
     3c6:	e2 f7       	brpl	.-8      	; 0x3c0 <DIO_voidSetPinValue+0x36>
     3c8:	80 95       	com	r24
     3ca:	82 23       	and	r24, r18
     3cc:	8b bb       	out	0x1b, r24	; 27
     3ce:	8b b3       	in	r24, 0x1b	; 27
     3d0:	08 95       	ret
            break;
        case DIO_u8_PORTB :
            write_bit(PORTB,Copy_u8Pin,Copy_u8Value);
     3d2:	44 23       	and	r20, r20
     3d4:	59 f0       	breq	.+22     	; 0x3ec <DIO_voidSetPinValue+0x62>
     3d6:	28 b3       	in	r18, 0x18	; 24
     3d8:	81 e0       	ldi	r24, 0x01	; 1
     3da:	90 e0       	ldi	r25, 0x00	; 0
     3dc:	02 c0       	rjmp	.+4      	; 0x3e2 <DIO_voidSetPinValue+0x58>
     3de:	88 0f       	add	r24, r24
     3e0:	99 1f       	adc	r25, r25
     3e2:	6a 95       	dec	r22
     3e4:	e2 f7       	brpl	.-8      	; 0x3de <DIO_voidSetPinValue+0x54>
     3e6:	28 2b       	or	r18, r24
     3e8:	28 bb       	out	0x18, r18	; 24
     3ea:	0b c0       	rjmp	.+22     	; 0x402 <DIO_voidSetPinValue+0x78>
     3ec:	28 b3       	in	r18, 0x18	; 24
     3ee:	81 e0       	ldi	r24, 0x01	; 1
     3f0:	90 e0       	ldi	r25, 0x00	; 0
     3f2:	02 c0       	rjmp	.+4      	; 0x3f8 <DIO_voidSetPinValue+0x6e>
     3f4:	88 0f       	add	r24, r24
     3f6:	99 1f       	adc	r25, r25
     3f8:	6a 95       	dec	r22
     3fa:	e2 f7       	brpl	.-8      	; 0x3f4 <DIO_voidSetPinValue+0x6a>
     3fc:	80 95       	com	r24
     3fe:	82 23       	and	r24, r18
     400:	88 bb       	out	0x18, r24	; 24
     402:	88 b3       	in	r24, 0x18	; 24
     404:	08 95       	ret
            break;
        case DIO_u8_PORTC :
            write_bit(PORTC,Copy_u8Pin,Copy_u8Value);
     406:	44 23       	and	r20, r20
     408:	59 f0       	breq	.+22     	; 0x420 <DIO_voidSetPinValue+0x96>
     40a:	25 b3       	in	r18, 0x15	; 21
     40c:	81 e0       	ldi	r24, 0x01	; 1
     40e:	90 e0       	ldi	r25, 0x00	; 0
     410:	02 c0       	rjmp	.+4      	; 0x416 <DIO_voidSetPinValue+0x8c>
     412:	88 0f       	add	r24, r24
     414:	99 1f       	adc	r25, r25
     416:	6a 95       	dec	r22
     418:	e2 f7       	brpl	.-8      	; 0x412 <DIO_voidSetPinValue+0x88>
     41a:	28 2b       	or	r18, r24
     41c:	25 bb       	out	0x15, r18	; 21
     41e:	0b c0       	rjmp	.+22     	; 0x436 <DIO_voidSetPinValue+0xac>
     420:	25 b3       	in	r18, 0x15	; 21
     422:	81 e0       	ldi	r24, 0x01	; 1
     424:	90 e0       	ldi	r25, 0x00	; 0
     426:	02 c0       	rjmp	.+4      	; 0x42c <DIO_voidSetPinValue+0xa2>
     428:	88 0f       	add	r24, r24
     42a:	99 1f       	adc	r25, r25
     42c:	6a 95       	dec	r22
     42e:	e2 f7       	brpl	.-8      	; 0x428 <DIO_voidSetPinValue+0x9e>
     430:	80 95       	com	r24
     432:	82 23       	and	r24, r18
     434:	85 bb       	out	0x15, r24	; 21
     436:	85 b3       	in	r24, 0x15	; 21
     438:	08 95       	ret
            break;
        case DIO_u8_PORTD :
            write_bit(PORTD,Copy_u8Pin,Copy_u8Value);
     43a:	44 23       	and	r20, r20
     43c:	61 f0       	breq	.+24     	; 0x456 <DIO_voidSetPinValue+0xcc>
     43e:	22 b3       	in	r18, 0x12	; 18
     440:	81 e0       	ldi	r24, 0x01	; 1
     442:	90 e0       	ldi	r25, 0x00	; 0
     444:	02 c0       	rjmp	.+4      	; 0x44a <DIO_voidSetPinValue+0xc0>
     446:	88 0f       	add	r24, r24
     448:	99 1f       	adc	r25, r25
     44a:	6a 95       	dec	r22
     44c:	e2 f7       	brpl	.-8      	; 0x446 <DIO_voidSetPinValue+0xbc>
     44e:	28 2b       	or	r18, r24
     450:	22 bb       	out	0x12, r18	; 18
     452:	82 b3       	in	r24, 0x12	; 18
     454:	08 95       	ret
     456:	22 b3       	in	r18, 0x12	; 18
     458:	81 e0       	ldi	r24, 0x01	; 1
     45a:	90 e0       	ldi	r25, 0x00	; 0
     45c:	02 c0       	rjmp	.+4      	; 0x462 <DIO_voidSetPinValue+0xd8>
     45e:	88 0f       	add	r24, r24
     460:	99 1f       	adc	r25, r25
     462:	6a 95       	dec	r22
     464:	e2 f7       	brpl	.-8      	; 0x45e <DIO_voidSetPinValue+0xd4>
     466:	80 95       	com	r24
     468:	82 23       	and	r24, r18
     46a:	82 bb       	out	0x12, r24	; 18
     46c:	82 b3       	in	r24, 0x12	; 18
     46e:	08 95       	ret

00000470 <DIO_u8ReadPinValue>:
    }
}

u8 DIO_u8ReadPinValue(u8 Copy_u8Port,u8 Copy_u8Pin){
    u8 LOC_u8PinState = 0;
    switch(Copy_u8Port){
     470:	81 30       	cpi	r24, 0x01	; 1
     472:	51 f0       	breq	.+20     	; 0x488 <DIO_u8ReadPinValue+0x18>
     474:	81 30       	cpi	r24, 0x01	; 1
     476:	30 f0       	brcs	.+12     	; 0x484 <DIO_u8ReadPinValue+0x14>
     478:	82 30       	cpi	r24, 0x02	; 2
     47a:	41 f0       	breq	.+16     	; 0x48c <DIO_u8ReadPinValue+0x1c>
     47c:	83 30       	cpi	r24, 0x03	; 3
     47e:	79 f0       	breq	.+30     	; 0x49e <DIO_u8ReadPinValue+0x2e>
     480:	80 e0       	ldi	r24, 0x00	; 0
     482:	08 95       	ret
        case DIO_u8_PORTA :
            LOC_u8PinState = get_bit(PINA,Copy_u8Pin);
     484:	89 b3       	in	r24, 0x19	; 25
     486:	03 c0       	rjmp	.+6      	; 0x48e <DIO_u8ReadPinValue+0x1e>
            break;
        case DIO_u8_PORTB :
            LOC_u8PinState = get_bit(PINB,Copy_u8Pin);
     488:	86 b3       	in	r24, 0x16	; 22
     48a:	01 c0       	rjmp	.+2      	; 0x48e <DIO_u8ReadPinValue+0x1e>
            break;
        case DIO_u8_PORTC :
            LOC_u8PinState = get_bit(PINC,Copy_u8Pin);
     48c:	83 b3       	in	r24, 0x13	; 19
     48e:	90 e0       	ldi	r25, 0x00	; 0
     490:	02 c0       	rjmp	.+4      	; 0x496 <DIO_u8ReadPinValue+0x26>
     492:	95 95       	asr	r25
     494:	87 95       	ror	r24
     496:	6a 95       	dec	r22
     498:	e2 f7       	brpl	.-8      	; 0x492 <DIO_u8ReadPinValue+0x22>
     49a:	81 70       	andi	r24, 0x01	; 1
     49c:	08 95       	ret
            break;
        case DIO_u8_PORTD :
            LOC_u8PinState = get_bit(PIND,Copy_u8Pin);
     49e:	80 b3       	in	r24, 0x10	; 16
     4a0:	90 e0       	ldi	r25, 0x00	; 0
     4a2:	02 c0       	rjmp	.+4      	; 0x4a8 <DIO_u8ReadPinValue+0x38>
     4a4:	95 95       	asr	r25
     4a6:	87 95       	ror	r24
     4a8:	6a 95       	dec	r22
     4aa:	e2 f7       	brpl	.-8      	; 0x4a4 <DIO_u8ReadPinValue+0x34>
     4ac:	81 70       	andi	r24, 0x01	; 1

    }
    return LOC_u8PinState;
}
     4ae:	08 95       	ret

000004b0 <DIO_voidActivePullUp>:


void DIO_voidActivePullUp(u8 Copy_u8Port,u8 Copy_u8Pin){
    switch(Copy_u8Port){
     4b0:	81 30       	cpi	r24, 0x01	; 1
     4b2:	c1 f0       	breq	.+48     	; 0x4e4 <DIO_voidActivePullUp+0x34>
     4b4:	81 30       	cpi	r24, 0x01	; 1
     4b6:	30 f0       	brcs	.+12     	; 0x4c4 <DIO_voidActivePullUp+0x14>
     4b8:	82 30       	cpi	r24, 0x02	; 2
     4ba:	21 f1       	breq	.+72     	; 0x504 <DIO_voidActivePullUp+0x54>
     4bc:	83 30       	cpi	r24, 0x03	; 3
     4be:	09 f0       	breq	.+2      	; 0x4c2 <DIO_voidActivePullUp+0x12>
     4c0:	40 c0       	rjmp	.+128    	; 0x542 <DIO_voidActivePullUp+0x92>
     4c2:	30 c0       	rjmp	.+96     	; 0x524 <DIO_voidActivePullUp+0x74>
        case DIO_u8_PORTA :
            clear_bit(DDRA,Copy_u8Pin);
     4c4:	3a b3       	in	r19, 0x1a	; 26
     4c6:	81 e0       	ldi	r24, 0x01	; 1
     4c8:	90 e0       	ldi	r25, 0x00	; 0
     4ca:	02 c0       	rjmp	.+4      	; 0x4d0 <DIO_voidActivePullUp+0x20>
     4cc:	88 0f       	add	r24, r24
     4ce:	99 1f       	adc	r25, r25
     4d0:	6a 95       	dec	r22
     4d2:	e2 f7       	brpl	.-8      	; 0x4cc <DIO_voidActivePullUp+0x1c>
     4d4:	28 2f       	mov	r18, r24
     4d6:	20 95       	com	r18
     4d8:	23 23       	and	r18, r19
     4da:	2a bb       	out	0x1a, r18	; 26
            set_bit(PORTA,Copy_u8Pin);
     4dc:	2b b3       	in	r18, 0x1b	; 27
     4de:	82 2b       	or	r24, r18
     4e0:	8b bb       	out	0x1b, r24	; 27
     4e2:	08 95       	ret
            break;
        case DIO_u8_PORTB :
            clear_bit(DDRB,Copy_u8Pin);
     4e4:	37 b3       	in	r19, 0x17	; 23
     4e6:	81 e0       	ldi	r24, 0x01	; 1
     4e8:	90 e0       	ldi	r25, 0x00	; 0
     4ea:	02 c0       	rjmp	.+4      	; 0x4f0 <DIO_voidActivePullUp+0x40>
     4ec:	88 0f       	add	r24, r24
     4ee:	99 1f       	adc	r25, r25
     4f0:	6a 95       	dec	r22
     4f2:	e2 f7       	brpl	.-8      	; 0x4ec <DIO_voidActivePullUp+0x3c>
     4f4:	28 2f       	mov	r18, r24
     4f6:	20 95       	com	r18
     4f8:	23 23       	and	r18, r19
     4fa:	27 bb       	out	0x17, r18	; 23
            set_bit(PORTB,Copy_u8Pin);
     4fc:	28 b3       	in	r18, 0x18	; 24
     4fe:	82 2b       	or	r24, r18
     500:	88 bb       	out	0x18, r24	; 24
     502:	08 95       	ret
            break;
        case DIO_u8_PORTC :
            clear_bit(DDRC,Copy_u8Pin);
     504:	34 b3       	in	r19, 0x14	; 20
     506:	81 e0       	ldi	r24, 0x01	; 1
     508:	90 e0       	ldi	r25, 0x00	; 0
     50a:	02 c0       	rjmp	.+4      	; 0x510 <DIO_voidActivePullUp+0x60>
     50c:	88 0f       	add	r24, r24
     50e:	99 1f       	adc	r25, r25
     510:	6a 95       	dec	r22
     512:	e2 f7       	brpl	.-8      	; 0x50c <DIO_voidActivePullUp+0x5c>
     514:	28 2f       	mov	r18, r24
     516:	20 95       	com	r18
     518:	23 23       	and	r18, r19
     51a:	24 bb       	out	0x14, r18	; 20
            set_bit(PORTC,Copy_u8Pin);
     51c:	25 b3       	in	r18, 0x15	; 21
     51e:	82 2b       	or	r24, r18
     520:	85 bb       	out	0x15, r24	; 21
     522:	08 95       	ret
            break;
        case DIO_u8_PORTD :
            clear_bit(DDRD,Copy_u8Pin);
     524:	31 b3       	in	r19, 0x11	; 17
     526:	81 e0       	ldi	r24, 0x01	; 1
     528:	90 e0       	ldi	r25, 0x00	; 0
     52a:	02 c0       	rjmp	.+4      	; 0x530 <DIO_voidActivePullUp+0x80>
     52c:	88 0f       	add	r24, r24
     52e:	99 1f       	adc	r25, r25
     530:	6a 95       	dec	r22
     532:	e2 f7       	brpl	.-8      	; 0x52c <DIO_voidActivePullUp+0x7c>
     534:	28 2f       	mov	r18, r24
     536:	20 95       	com	r18
     538:	23 23       	and	r18, r19
     53a:	21 bb       	out	0x11, r18	; 17
            set_bit(PORTD,Copy_u8Pin);
     53c:	22 b3       	in	r18, 0x12	; 18
     53e:	82 2b       	or	r24, r18
     540:	82 bb       	out	0x12, r24	; 18
     542:	08 95       	ret

00000544 <DIO_voidTogglePin>:
    }
}


void DIO_voidTogglePin(u8 Copy_u8Port,u8 Copy_u8Pin){
    switch (Copy_u8Port){
     544:	81 30       	cpi	r24, 0x01	; 1
     546:	91 f0       	breq	.+36     	; 0x56c <DIO_voidTogglePin+0x28>
     548:	81 30       	cpi	r24, 0x01	; 1
     54a:	28 f0       	brcs	.+10     	; 0x556 <DIO_voidTogglePin+0x12>
     54c:	82 30       	cpi	r24, 0x02	; 2
     54e:	c9 f0       	breq	.+50     	; 0x582 <DIO_voidTogglePin+0x3e>
     550:	83 30       	cpi	r24, 0x03	; 3
     552:	61 f5       	brne	.+88     	; 0x5ac <DIO_voidTogglePin+0x68>
     554:	21 c0       	rjmp	.+66     	; 0x598 <DIO_voidTogglePin+0x54>
    case DIO_u8_PORTA:
        toggle_bit(PORTA,Copy_u8Pin);
     556:	2b b3       	in	r18, 0x1b	; 27
     558:	81 e0       	ldi	r24, 0x01	; 1
     55a:	90 e0       	ldi	r25, 0x00	; 0
     55c:	02 c0       	rjmp	.+4      	; 0x562 <DIO_voidTogglePin+0x1e>
     55e:	88 0f       	add	r24, r24
     560:	99 1f       	adc	r25, r25
     562:	6a 95       	dec	r22
     564:	e2 f7       	brpl	.-8      	; 0x55e <DIO_voidTogglePin+0x1a>
     566:	28 27       	eor	r18, r24
     568:	2b bb       	out	0x1b, r18	; 27
     56a:	08 95       	ret
        break;
    case DIO_u8_PORTB:
        toggle_bit(PORTB,Copy_u8Pin);
     56c:	28 b3       	in	r18, 0x18	; 24
     56e:	81 e0       	ldi	r24, 0x01	; 1
     570:	90 e0       	ldi	r25, 0x00	; 0
     572:	02 c0       	rjmp	.+4      	; 0x578 <DIO_voidTogglePin+0x34>
     574:	88 0f       	add	r24, r24
     576:	99 1f       	adc	r25, r25
     578:	6a 95       	dec	r22
     57a:	e2 f7       	brpl	.-8      	; 0x574 <DIO_voidTogglePin+0x30>
     57c:	28 27       	eor	r18, r24
     57e:	28 bb       	out	0x18, r18	; 24
     580:	08 95       	ret
        break;
    case DIO_u8_PORTC:
        toggle_bit(PORTC,Copy_u8Pin);
     582:	25 b3       	in	r18, 0x15	; 21
     584:	81 e0       	ldi	r24, 0x01	; 1
     586:	90 e0       	ldi	r25, 0x00	; 0
     588:	02 c0       	rjmp	.+4      	; 0x58e <DIO_voidTogglePin+0x4a>
     58a:	88 0f       	add	r24, r24
     58c:	99 1f       	adc	r25, r25
     58e:	6a 95       	dec	r22
     590:	e2 f7       	brpl	.-8      	; 0x58a <DIO_voidTogglePin+0x46>
     592:	28 27       	eor	r18, r24
     594:	25 bb       	out	0x15, r18	; 21
     596:	08 95       	ret
        break;
    case DIO_u8_PORTD:
        toggle_bit(PORTD,Copy_u8Pin);
     598:	22 b3       	in	r18, 0x12	; 18
     59a:	81 e0       	ldi	r24, 0x01	; 1
     59c:	90 e0       	ldi	r25, 0x00	; 0
     59e:	02 c0       	rjmp	.+4      	; 0x5a4 <DIO_voidTogglePin+0x60>
     5a0:	88 0f       	add	r24, r24
     5a2:	99 1f       	adc	r25, r25
     5a4:	6a 95       	dec	r22
     5a6:	e2 f7       	brpl	.-8      	; 0x5a0 <DIO_voidTogglePin+0x5c>
     5a8:	28 27       	eor	r18, r24
     5aa:	22 bb       	out	0x12, r18	; 18
     5ac:	08 95       	ret

000005ae <ADC_voidInit>:
#include "ADC_private.h"


void ADC_voidInit(){

	ADMUX = (1 << REFS0);
     5ae:	80 e4       	ldi	r24, 0x40	; 64
     5b0:	87 b9       	out	0x07, r24	; 7
	ADCSRA =  (1 << ADPS0) |  (1 << ADPS1) |  (1 << ADPS2);
     5b2:	87 e0       	ldi	r24, 0x07	; 7
     5b4:	86 b9       	out	0x06, r24	; 6

}
     5b6:	08 95       	ret

000005b8 <ADC_voidEnable>:
void ADC_voidEnable(){
	set_bit(ADCSRA,ADEN);
     5b8:	37 9a       	sbi	0x06, 7	; 6
}
     5ba:	08 95       	ret

000005bc <ADC_voidDisable>:
void ADC_voidDisable(){
	clear_bit(ADCSRA,ADEN);
     5bc:	37 98       	cbi	0x06, 7	; 6
}
     5be:	08 95       	ret

000005c0 <ADC_u16GetValue>:
u16 ADC_u16GetValue(u8 ADC_u8_Channel){
	clear_bit(ADMUX,MUX3);
     5c0:	3b 98       	cbi	0x07, 3	; 7
	clear_bit(ADMUX,MUX4);
     5c2:	3c 98       	cbi	0x07, 4	; 7

	switch (ADC_u8_Channel){
     5c4:	83 30       	cpi	r24, 0x03	; 3
     5c6:	c1 f0       	breq	.+48     	; 0x5f8 <ADC_u16GetValue+0x38>
     5c8:	84 30       	cpi	r24, 0x04	; 4
     5ca:	28 f4       	brcc	.+10     	; 0x5d6 <ADC_u16GetValue+0x16>
     5cc:	81 30       	cpi	r24, 0x01	; 1
     5ce:	71 f0       	breq	.+28     	; 0x5ec <ADC_u16GetValue+0x2c>
     5d0:	82 30       	cpi	r24, 0x02	; 2
     5d2:	80 f4       	brcc	.+32     	; 0x5f4 <ADC_u16GetValue+0x34>
     5d4:	09 c0       	rjmp	.+18     	; 0x5e8 <ADC_u16GetValue+0x28>
     5d6:	85 30       	cpi	r24, 0x05	; 5
     5d8:	a1 f0       	breq	.+40     	; 0x602 <ADC_u16GetValue+0x42>
     5da:	85 30       	cpi	r24, 0x05	; 5
     5dc:	80 f0       	brcs	.+32     	; 0x5fe <ADC_u16GetValue+0x3e>
     5de:	86 30       	cpi	r24, 0x06	; 6
     5e0:	99 f0       	breq	.+38     	; 0x608 <ADC_u16GetValue+0x48>
     5e2:	87 30       	cpi	r24, 0x07	; 7
     5e4:	b1 f4       	brne	.+44     	; 0x612 <ADC_u16GetValue+0x52>
     5e6:	12 c0       	rjmp	.+36     	; 0x60c <ADC_u16GetValue+0x4c>
		case ADC_u8_ADC0_CHANNEL:
			clear_bit(ADMUX,MUX0);
     5e8:	38 98       	cbi	0x07, 0	; 7
     5ea:	01 c0       	rjmp	.+2      	; 0x5ee <ADC_u16GetValue+0x2e>
			clear_bit(ADMUX,MUX1);
			clear_bit(ADMUX,MUX2);
			break;
		case ADC_u8_ADC1_CHANNEL:
			set_bit(ADMUX,MUX0);
     5ec:	38 9a       	sbi	0x07, 0	; 7
			clear_bit(ADMUX,MUX1);
     5ee:	39 98       	cbi	0x07, 1	; 7
			clear_bit(ADMUX,MUX2);
     5f0:	3a 98       	cbi	0x07, 2	; 7
     5f2:	0f c0       	rjmp	.+30     	; 0x612 <ADC_u16GetValue+0x52>
			break;
		case ADC_u8_ADC2_CHANNEL:
			clear_bit(ADMUX,MUX0);
     5f4:	38 98       	cbi	0x07, 0	; 7
     5f6:	01 c0       	rjmp	.+2      	; 0x5fa <ADC_u16GetValue+0x3a>
			set_bit(ADMUX,MUX1);
			clear_bit(ADMUX,MUX2);
			break;
		case ADC_u8_ADC3_CHANNEL:
			set_bit(ADMUX,MUX0);
     5f8:	38 9a       	sbi	0x07, 0	; 7
			set_bit(ADMUX,MUX1);
     5fa:	39 9a       	sbi	0x07, 1	; 7
     5fc:	f9 cf       	rjmp	.-14     	; 0x5f0 <ADC_u16GetValue+0x30>
			clear_bit(ADMUX,MUX2);
			break;
		case ADC_u8_ADC4_CHANNEL:
			clear_bit(ADMUX,MUX0);
     5fe:	38 98       	cbi	0x07, 0	; 7
     600:	01 c0       	rjmp	.+2      	; 0x604 <ADC_u16GetValue+0x44>
			clear_bit(ADMUX,MUX1);
			set_bit(ADMUX,MUX2);
			break;
		case ADC_u8_ADC5_CHANNEL:
			set_bit(ADMUX,MUX0);
     602:	38 9a       	sbi	0x07, 0	; 7
			clear_bit(ADMUX,MUX1);
     604:	39 98       	cbi	0x07, 1	; 7
     606:	04 c0       	rjmp	.+8      	; 0x610 <ADC_u16GetValue+0x50>
			set_bit(ADMUX,MUX2);
			break;
		case ADC_u8_ADC6_CHANNEL:
			clear_bit(ADMUX,MUX0);
     608:	38 98       	cbi	0x07, 0	; 7
     60a:	01 c0       	rjmp	.+2      	; 0x60e <ADC_u16GetValue+0x4e>
			set_bit(ADMUX,MUX1);
			set_bit(ADMUX,MUX2);
			break;
		case ADC_u8_ADC7_CHANNEL:
			set_bit(ADMUX,MUX0);
     60c:	38 9a       	sbi	0x07, 0	; 7
			set_bit(ADMUX,MUX1);
     60e:	39 9a       	sbi	0x07, 1	; 7
			set_bit(ADMUX,MUX2);
     610:	3a 9a       	sbi	0x07, 2	; 7
			break;
	}

	set_bit(ADCSRA,ADSC);
     612:	36 9a       	sbi	0x06, 6	; 6
	while(!get_bit(ADCSRA,ADIF));
     614:	34 9b       	sbis	0x06, 4	; 6
     616:	fe cf       	rjmp	.-4      	; 0x614 <ADC_u16GetValue+0x54>

	set_bit(ADCSRA,ADIF);
     618:	34 9a       	sbi	0x06, 4	; 6
	
    u16 LOC_u16_Result = ADC;
     61a:	24 b1       	in	r18, 0x04	; 4
     61c:	35 b1       	in	r19, 0x05	; 5
    return LOC_u16_Result;
}
     61e:	c9 01       	movw	r24, r18
     620:	08 95       	ret

00000622 <LCD_voidSendCmd>:
    _delay_ms(1);

}


void LCD_voidSendCmd(u8 Copy_u8cmd){
     622:	0f 93       	push	r16
     624:	1f 93       	push	r17
     626:	68 2f       	mov	r22, r24
    DIO_voidSetPortValue(LCD_DATA_PORT,Copy_u8cmd);
     628:	81 e0       	ldi	r24, 0x01	; 1
     62a:	0e 94 b4 01 	call	0x368	; 0x368 <DIO_voidSetPortValue>
    DIO_voidSetPinValue(LCD_CONTROL_PORT,LCD_RS_PIN,DIO_u8_LOW); // RS = 0
     62e:	82 e0       	ldi	r24, 0x02	; 2
     630:	60 e0       	ldi	r22, 0x00	; 0
     632:	40 e0       	ldi	r20, 0x00	; 0
     634:	0e 94 c5 01 	call	0x38a	; 0x38a <DIO_voidSetPinValue>
    // Falling Edge
    DIO_voidSetPinValue(LCD_CONTROL_PORT,LCD_ENABLE_PIN,DIO_u8_HIGH); // EN = 1
     638:	82 e0       	ldi	r24, 0x02	; 2
     63a:	61 e0       	ldi	r22, 0x01	; 1
     63c:	41 e0       	ldi	r20, 0x01	; 1
     63e:	0e 94 c5 01 	call	0x38a	; 0x38a <DIO_voidSetPinValue>
    milliseconds can be achieved.
 */
void
_delay_loop_2(uint16_t __count)
{
	__asm__ volatile (
     642:	0a ef       	ldi	r16, 0xFA	; 250
     644:	10 e0       	ldi	r17, 0x00	; 0
     646:	c8 01       	movw	r24, r16
     648:	01 97       	sbiw	r24, 0x01	; 1
     64a:	f1 f7       	brne	.-4      	; 0x648 <LCD_voidSendCmd+0x26>
    _delay_ms(1);
    DIO_voidSetPinValue(LCD_CONTROL_PORT,LCD_ENABLE_PIN,DIO_u8_LOW); // EN = 0
     64c:	82 e0       	ldi	r24, 0x02	; 2
     64e:	61 e0       	ldi	r22, 0x01	; 1
     650:	40 e0       	ldi	r20, 0x00	; 0
     652:	0e 94 c5 01 	call	0x38a	; 0x38a <DIO_voidSetPinValue>
     656:	c8 01       	movw	r24, r16
     658:	01 97       	sbiw	r24, 0x01	; 1
     65a:	f1 f7       	brne	.-4      	; 0x658 <LCD_voidSendCmd+0x36>
    _delay_ms(1);
    
}
     65c:	1f 91       	pop	r17
     65e:	0f 91       	pop	r16
     660:	08 95       	ret

00000662 <LCD_voidReturnHome>:




void LCD_voidReturnHome(void){
    LCD_voidSendCmd(LCD_u8_RETURN_HOME);
     662:	82 e0       	ldi	r24, 0x02	; 2
     664:	0e 94 11 03 	call	0x622	; 0x622 <LCD_voidSendCmd>
     668:	84 ef       	ldi	r24, 0xF4	; 244
     66a:	91 e0       	ldi	r25, 0x01	; 1
     66c:	01 97       	sbiw	r24, 0x01	; 1
     66e:	f1 f7       	brne	.-4      	; 0x66c <LCD_voidReturnHome+0xa>
    _delay_ms(2);
}
     670:	08 95       	ret

00000672 <LCD_voidMoveCursor>:



void LCD_voidMoveCursor(u8 Copy_u8Row,u8 Copy_u8Col){
    u8 LOC_bias = (Copy_u8Row - 1) * 0x40;
    LCD_voidSendCmd((1 << 7) | (LOC_bias + Copy_u8Col - 1));
     672:	61 50       	subi	r22, 0x01	; 1
     674:	90 e0       	ldi	r25, 0x00	; 0
     676:	01 97       	sbiw	r24, 0x01	; 1
     678:	26 e0       	ldi	r18, 0x06	; 6
     67a:	88 0f       	add	r24, r24
     67c:	99 1f       	adc	r25, r25
     67e:	2a 95       	dec	r18
     680:	e1 f7       	brne	.-8      	; 0x67a <LCD_voidMoveCursor+0x8>
     682:	68 0f       	add	r22, r24
     684:	86 2f       	mov	r24, r22
     686:	80 68       	ori	r24, 0x80	; 128
     688:	0e 94 11 03 	call	0x622	; 0x622 <LCD_voidSendCmd>
    can be achieved.
*/
void
_delay_loop_1(uint8_t __count)
{
	__asm__ volatile (
     68c:	80 e1       	ldi	r24, 0x10	; 16
     68e:	8a 95       	dec	r24
     690:	f1 f7       	brne	.-4      	; 0x68e <LCD_voidMoveCursor+0x1c>
    _delay_us(50);
}
     692:	08 95       	ret

00000694 <LCD_voidClearDisplay>:




void LCD_voidClearDisplay(void){
    LCD_voidSendCmd(LCD_u8_CLEAR_DISPLAY);
     694:	81 e0       	ldi	r24, 0x01	; 1
     696:	0e 94 11 03 	call	0x622	; 0x622 <LCD_voidSendCmd>
    milliseconds can be achieved.
 */
void
_delay_loop_2(uint16_t __count)
{
	__asm__ volatile (
     69a:	84 ef       	ldi	r24, 0xF4	; 244
     69c:	91 e0       	ldi	r25, 0x01	; 1
     69e:	01 97       	sbiw	r24, 0x01	; 1
     6a0:	f1 f7       	brne	.-4      	; 0x69e <LCD_voidClearDisplay+0xa>
    _delay_ms(2);
    
}
     6a2:	08 95       	ret

000006a4 <LCD_voidSendData>:

}



void LCD_voidSendData(u8 Copy_u8data){
     6a4:	0f 93       	push	r16
     6a6:	1f 93       	push	r17
     6a8:	68 2f       	mov	r22, r24

    DIO_voidSetPortValue(LCD_DATA_PORT,Copy_u8data);
     6aa:	81 e0       	ldi	r24, 0x01	; 1
     6ac:	0e 94 b4 01 	call	0x368	; 0x368 <DIO_voidSetPortValue>
    DIO_voidSetPinValue(LCD_CONTROL_PORT,LCD_RS_PIN,DIO_u8_HIGH); // RS = 1
     6b0:	82 e0       	ldi	r24, 0x02	; 2
     6b2:	60 e0       	ldi	r22, 0x00	; 0
     6b4:	41 e0       	ldi	r20, 0x01	; 1
     6b6:	0e 94 c5 01 	call	0x38a	; 0x38a <DIO_voidSetPinValue>
    // Falling Edge
    DIO_voidSetPinValue(LCD_CONTROL_PORT,LCD_ENABLE_PIN,DIO_u8_HIGH); // EN = 1
     6ba:	82 e0       	ldi	r24, 0x02	; 2
     6bc:	61 e0       	ldi	r22, 0x01	; 1
     6be:	41 e0       	ldi	r20, 0x01	; 1
     6c0:	0e 94 c5 01 	call	0x38a	; 0x38a <DIO_voidSetPinValue>
     6c4:	0a ef       	ldi	r16, 0xFA	; 250
     6c6:	10 e0       	ldi	r17, 0x00	; 0
     6c8:	c8 01       	movw	r24, r16
     6ca:	01 97       	sbiw	r24, 0x01	; 1
     6cc:	f1 f7       	brne	.-4      	; 0x6ca <LCD_voidSendData+0x26>
    _delay_ms(1);
    DIO_voidSetPinValue(LCD_CONTROL_PORT,LCD_ENABLE_PIN,DIO_u8_LOW); // EN = 0
     6ce:	82 e0       	ldi	r24, 0x02	; 2
     6d0:	61 e0       	ldi	r22, 0x01	; 1
     6d2:	40 e0       	ldi	r20, 0x00	; 0
     6d4:	0e 94 c5 01 	call	0x38a	; 0x38a <DIO_voidSetPinValue>
     6d8:	c8 01       	movw	r24, r16
     6da:	01 97       	sbiw	r24, 0x01	; 1
     6dc:	f1 f7       	brne	.-4      	; 0x6da <LCD_voidSendData+0x36>
    _delay_ms(1);

}
     6de:	1f 91       	pop	r17
     6e0:	0f 91       	pop	r16
     6e2:	08 95       	ret

000006e4 <LCD_voidAddCharacter>:
}




void LCD_voidAddCharacter(){
     6e4:	1f 93       	push	r17
     6e6:	cf 93       	push	r28
     6e8:	df 93       	push	r29
    LCD_voidSendCmd((1 << 6));
     6ea:	80 e4       	ldi	r24, 0x40	; 64
     6ec:	0e 94 11 03 	call	0x622	; 0x622 <LCD_voidSendCmd>
    can be achieved.
*/
void
_delay_loop_1(uint8_t __count)
{
	__asm__ volatile (
     6f0:	80 e1       	ldi	r24, 0x10	; 16
     6f2:	8a 95       	dec	r24
     6f4:	f1 f7       	brne	.-4      	; 0x6f2 <LCD_voidAddCharacter+0xe>
     6f6:	c9 e8       	ldi	r28, 0x89	; 137
     6f8:	d0 e0       	ldi	r29, 0x00	; 0
    _delay_us(50);
    for(u8 i = 0;i<sizeof(LCD_u8_Chars) / sizeof(LCD_u8_Chars[0]);i++){
        LCD_voidSendData(LCD_u8_Chars[i]);
     6fa:	10 e1       	ldi	r17, 0x10	; 16
     6fc:	89 91       	ld	r24, Y+
     6fe:	0e 94 52 03 	call	0x6a4	; 0x6a4 <LCD_voidSendData>
     702:	81 2f       	mov	r24, r17
     704:	8a 95       	dec	r24
     706:	f1 f7       	brne	.-4      	; 0x704 <LCD_voidAddCharacter+0x20>


void LCD_voidAddCharacter(){
    LCD_voidSendCmd((1 << 6));
    _delay_us(50);
    for(u8 i = 0;i<sizeof(LCD_u8_Chars) / sizeof(LCD_u8_Chars[0]);i++){
     708:	80 e0       	ldi	r24, 0x00	; 0
     70a:	c9 3b       	cpi	r28, 0xB9	; 185
     70c:	d8 07       	cpc	r29, r24
     70e:	b1 f7       	brne	.-20     	; 0x6fc <LCD_voidAddCharacter+0x18>
        LCD_voidSendData(LCD_u8_Chars[i]);
        _delay_us(50);
    }
    LCD_voidMoveCursor(1,1);
     710:	81 e0       	ldi	r24, 0x01	; 1
     712:	61 e0       	ldi	r22, 0x01	; 1
     714:	0e 94 39 03 	call	0x672	; 0x672 <LCD_voidMoveCursor>
     718:	df 91       	pop	r29
     71a:	cf 91       	pop	r28
     71c:	1f 91       	pop	r17
     71e:	08 95       	ret

00000720 <LCD_voidWriteInteger>:
    }   
}



void LCD_voidWriteInteger(u64 Copy_u32Number){
     720:	2f 92       	push	r2
     722:	3f 92       	push	r3
     724:	4f 92       	push	r4
     726:	5f 92       	push	r5
     728:	6f 92       	push	r6
     72a:	7f 92       	push	r7
     72c:	8f 92       	push	r8
     72e:	9f 92       	push	r9
     730:	af 92       	push	r10
     732:	bf 92       	push	r11
     734:	cf 92       	push	r12
     736:	df 92       	push	r13
     738:	ef 92       	push	r14
     73a:	ff 92       	push	r15
     73c:	0f 93       	push	r16
     73e:	1f 93       	push	r17
     740:	df 93       	push	r29
     742:	cf 93       	push	r28
     744:	cd b7       	in	r28, 0x3d	; 61
     746:	de b7       	in	r29, 0x3e	; 62
     748:	67 97       	sbiw	r28, 0x17	; 23
     74a:	0f b6       	in	r0, 0x3f	; 63
     74c:	f8 94       	cli
     74e:	de bf       	out	0x3e, r29	; 62
     750:	0f be       	out	0x3f, r0	; 63
     752:	cd bf       	out	0x3d, r28	; 61
     754:	92 2e       	mov	r9, r18
     756:	83 2e       	mov	r8, r19
     758:	1a 01       	movw	r2, r20
     75a:	2b 01       	movw	r4, r22
     75c:	3c 01       	movw	r6, r24
     75e:	1d 8a       	std	Y+21, r1	; 0x15
     760:	2c c0       	rjmp	.+88     	; 0x7ba <LCD_voidWriteInteger+0x9a>
    u8 LOC_digits[20];
    u8 LOC_size = 0;
    while(Copy_u32Number){
        LOC_digits[LOC_size++] = '0' + (Copy_u32Number % 10);
     762:	81 e0       	ldi	r24, 0x01	; 1
     764:	90 e0       	ldi	r25, 0x00	; 0
     766:	8c 0f       	add	r24, r28
     768:	9d 1f       	adc	r25, r29
     76a:	ed 89       	ldd	r30, Y+21	; 0x15
     76c:	8e 0f       	add	r24, r30
     76e:	91 1d       	adc	r25, r1
     770:	9f 8b       	std	Y+23, r25	; 0x17
     772:	8e 8b       	std	Y+22, r24	; 0x16
     774:	29 2d       	mov	r18, r9
     776:	38 2d       	mov	r19, r8
     778:	a1 01       	movw	r20, r2
     77a:	b2 01       	movw	r22, r4
     77c:	c3 01       	movw	r24, r6
     77e:	ea e0       	ldi	r30, 0x0A	; 10
     780:	ae 2e       	mov	r10, r30
     782:	bb 24       	eor	r11, r11
     784:	cc 24       	eor	r12, r12
     786:	dd 24       	eor	r13, r13
     788:	ee 24       	eor	r14, r14
     78a:	ff 24       	eor	r15, r15
     78c:	00 e0       	ldi	r16, 0x00	; 0
     78e:	10 e0       	ldi	r17, 0x00	; 0
     790:	0e 94 cc 0a 	call	0x1598	; 0x1598 <__umoddi3>
     794:	20 5d       	subi	r18, 0xD0	; 208
     796:	ee 89       	ldd	r30, Y+22	; 0x16
     798:	ff 89       	ldd	r31, Y+23	; 0x17
     79a:	20 83       	st	Z, r18
     79c:	fd 89       	ldd	r31, Y+21	; 0x15
     79e:	ff 5f       	subi	r31, 0xFF	; 255
     7a0:	fd 8b       	std	Y+21, r31	; 0x15
        Copy_u32Number /= 10;
     7a2:	29 2d       	mov	r18, r9
     7a4:	38 2d       	mov	r19, r8
     7a6:	a1 01       	movw	r20, r2
     7a8:	b2 01       	movw	r22, r4
     7aa:	c3 01       	movw	r24, r6
     7ac:	0e 94 57 04 	call	0x8ae	; 0x8ae <__udivdi3>
     7b0:	92 2e       	mov	r9, r18
     7b2:	83 2e       	mov	r8, r19
     7b4:	1a 01       	movw	r2, r20
     7b6:	2b 01       	movw	r4, r22
     7b8:	3c 01       	movw	r6, r24


void LCD_voidWriteInteger(u64 Copy_u32Number){
    u8 LOC_digits[20];
    u8 LOC_size = 0;
    while(Copy_u32Number){
     7ba:	89 2d       	mov	r24, r9
     7bc:	88 29       	or	r24, r8
     7be:	82 29       	or	r24, r2
     7c0:	83 29       	or	r24, r3
     7c2:	84 29       	or	r24, r4
     7c4:	85 29       	or	r24, r5
     7c6:	86 29       	or	r24, r6
     7c8:	87 29       	or	r24, r7
     7ca:	59 f6       	brne	.-106    	; 0x762 <LCD_voidWriteInteger+0x42>
        LOC_digits[LOC_size++] = '0' + (Copy_u32Number % 10);
        Copy_u32Number /= 10;
    }
    if(!LOC_size)
     7cc:	2d 89       	ldd	r18, Y+21	; 0x15
     7ce:	22 23       	and	r18, r18
     7d0:	21 f4       	brne	.+8      	; 0x7da <LCD_voidWriteInteger+0xba>
        LCD_voidSendData('0');
     7d2:	80 e3       	ldi	r24, 0x30	; 48
     7d4:	0e 94 52 03 	call	0x6a4	; 0x6a4 <LCD_voidSendData>
     7d8:	15 c0       	rjmp	.+42     	; 0x804 <LCD_voidWriteInteger+0xe4>
    else
        for(s8 i = LOC_size - 1;i>=0;i--)
     7da:	fd 88       	ldd	r15, Y+21	; 0x15
     7dc:	fa 94       	dec	r15
     7de:	8f 2d       	mov	r24, r15
     7e0:	99 27       	eor	r25, r25
     7e2:	87 fd       	sbrc	r24, 7
     7e4:	90 95       	com	r25
     7e6:	8e 01       	movw	r16, r28
     7e8:	0f 5f       	subi	r16, 0xFF	; 255
     7ea:	1f 4f       	sbci	r17, 0xFF	; 255
     7ec:	08 0f       	add	r16, r24
     7ee:	19 1f       	adc	r17, r25
     7f0:	07 c0       	rjmp	.+14     	; 0x800 <LCD_voidWriteInteger+0xe0>
            LCD_voidSendData(LOC_digits[i]);
     7f2:	f8 01       	movw	r30, r16
     7f4:	80 81       	ld	r24, Z
     7f6:	0e 94 52 03 	call	0x6a4	; 0x6a4 <LCD_voidSendData>
        Copy_u32Number /= 10;
    }
    if(!LOC_size)
        LCD_voidSendData('0');
    else
        for(s8 i = LOC_size - 1;i>=0;i--)
     7fa:	fa 94       	dec	r15
     7fc:	01 50       	subi	r16, 0x01	; 1
     7fe:	10 40       	sbci	r17, 0x00	; 0
     800:	f7 fe       	sbrs	r15, 7
     802:	f7 cf       	rjmp	.-18     	; 0x7f2 <LCD_voidWriteInteger+0xd2>
            LCD_voidSendData(LOC_digits[i]);
}
     804:	67 96       	adiw	r28, 0x17	; 23
     806:	0f b6       	in	r0, 0x3f	; 63
     808:	f8 94       	cli
     80a:	de bf       	out	0x3e, r29	; 62
     80c:	0f be       	out	0x3f, r0	; 63
     80e:	cd bf       	out	0x3d, r28	; 61
     810:	cf 91       	pop	r28
     812:	df 91       	pop	r29
     814:	1f 91       	pop	r17
     816:	0f 91       	pop	r16
     818:	ff 90       	pop	r15
     81a:	ef 90       	pop	r14
     81c:	df 90       	pop	r13
     81e:	cf 90       	pop	r12
     820:	bf 90       	pop	r11
     822:	af 90       	pop	r10
     824:	9f 90       	pop	r9
     826:	8f 90       	pop	r8
     828:	7f 90       	pop	r7
     82a:	6f 90       	pop	r6
     82c:	5f 90       	pop	r5
     82e:	4f 90       	pop	r4
     830:	3f 90       	pop	r3
     832:	2f 90       	pop	r2
     834:	08 95       	ret

00000836 <LCD_voidWriteString>:
    _delay_ms(1);
    
}


void LCD_voidWriteString(u8 * Copy_u8PtrString){
     836:	cf 93       	push	r28
     838:	df 93       	push	r29
     83a:	ec 01       	movw	r28, r24
     83c:	03 c0       	rjmp	.+6      	; 0x844 <LCD_voidWriteString+0xe>
    while(*Copy_u8PtrString){
        LCD_voidSendData(*(Copy_u8PtrString++));
     83e:	21 96       	adiw	r28, 0x01	; 1
     840:	0e 94 52 03 	call	0x6a4	; 0x6a4 <LCD_voidSendData>
    
}


void LCD_voidWriteString(u8 * Copy_u8PtrString){
    while(*Copy_u8PtrString){
     844:	88 81       	ld	r24, Y
     846:	88 23       	and	r24, r24
     848:	d1 f7       	brne	.-12     	; 0x83e <LCD_voidWriteString+0x8>
        LCD_voidSendData(*(Copy_u8PtrString++));
    }   
}
     84a:	df 91       	pop	r29
     84c:	cf 91       	pop	r28
     84e:	08 95       	ret

00000850 <LCD_voidInit>:
#include "LCD_config.h"
#include <util/delay.h>



void LCD_voidInit(void){
     850:	1f 93       	push	r17
    DIO_voidSetPortDirection(LCD_DATA_PORT,0xff);
     852:	81 e0       	ldi	r24, 0x01	; 1
     854:	6f ef       	ldi	r22, 0xFF	; 255
     856:	0e 94 30 01 	call	0x260	; 0x260 <DIO_voidSetPortDirection>
    DIO_voidSetPinDirection(LCD_CONTROL_PORT,LCD_RS_PIN,DIO_u8_OUTPUT);
     85a:	82 e0       	ldi	r24, 0x02	; 2
     85c:	60 e0       	ldi	r22, 0x00	; 0
     85e:	41 e0       	ldi	r20, 0x01	; 1
     860:	0e 94 41 01 	call	0x282	; 0x282 <DIO_voidSetPinDirection>
    DIO_voidSetPinDirection(LCD_CONTROL_PORT,LCD_ENABLE_PIN,DIO_u8_OUTPUT);
     864:	82 e0       	ldi	r24, 0x02	; 2
     866:	61 e0       	ldi	r22, 0x01	; 1
     868:	41 e0       	ldi	r20, 0x01	; 1
     86a:	0e 94 41 01 	call	0x282	; 0x282 <DIO_voidSetPinDirection>
    milliseconds can be achieved.
 */
void
_delay_loop_2(uint16_t __count)
{
	__asm__ volatile (
     86e:	84 ed       	ldi	r24, 0xD4	; 212
     870:	90 e3       	ldi	r25, 0x30	; 48
     872:	01 97       	sbiw	r24, 0x01	; 1
     874:	f1 f7       	brne	.-4      	; 0x872 <__stack+0x13>
    _delay_ms(50);

    // Function Set (DATA LINE = 4 & 2 Line Display & 5 x 8 Dots)
    LCD_voidSendCmd(LCD_u8_FUNCTION_SET);
     876:	8c e3       	ldi	r24, 0x3C	; 60
     878:	0e 94 11 03 	call	0x622	; 0x622 <LCD_voidSendCmd>
    can be achieved.
*/
void
_delay_loop_1(uint8_t __count)
{
	__asm__ volatile (
     87c:	10 e1       	ldi	r17, 0x10	; 16
     87e:	81 2f       	mov	r24, r17
     880:	8a 95       	dec	r24
     882:	f1 f7       	brne	.-4      	; 0x880 <__stack+0x21>
    _delay_us(50);

    // Display Control (Display ON + Cursor ON + Blink OFF)
    LCD_voidSendCmd(LCD_u8_DISPLAY);
     884:	8c e0       	ldi	r24, 0x0C	; 12
     886:	0e 94 11 03 	call	0x622	; 0x622 <LCD_voidSendCmd>
     88a:	1a 95       	dec	r17
     88c:	f1 f7       	brne	.-4      	; 0x88a <__stack+0x2b>
    _delay_us(50);

    // Clear Display
    LCD_voidSendCmd(LCD_u8_CLEAR_DISPLAY);
     88e:	81 e0       	ldi	r24, 0x01	; 1
     890:	0e 94 11 03 	call	0x622	; 0x622 <LCD_voidSendCmd>
    milliseconds can be achieved.
 */
void
_delay_loop_2(uint16_t __count)
{
	__asm__ volatile (
     894:	84 ef       	ldi	r24, 0xF4	; 244
     896:	91 e0       	ldi	r25, 0x01	; 1
     898:	01 97       	sbiw	r24, 0x01	; 1
     89a:	f1 f7       	brne	.-4      	; 0x898 <__stack+0x39>
    _delay_ms(2);
    
    // Entry Mode Set
    LCD_voidSendCmd(LCD_u8_ENTRY_MODE_SET);
     89c:	86 e0       	ldi	r24, 0x06	; 6
     89e:	0e 94 11 03 	call	0x622	; 0x622 <LCD_voidSendCmd>
     8a2:	8a ef       	ldi	r24, 0xFA	; 250
     8a4:	90 e0       	ldi	r25, 0x00	; 0
     8a6:	01 97       	sbiw	r24, 0x01	; 1
     8a8:	f1 f7       	brne	.-4      	; 0x8a6 <__stack+0x47>
    _delay_ms(1);


}
     8aa:	1f 91       	pop	r17
     8ac:	08 95       	ret

000008ae <__udivdi3>:
     8ae:	ae e5       	ldi	r26, 0x5E	; 94
     8b0:	b0 e0       	ldi	r27, 0x00	; 0
     8b2:	ed e5       	ldi	r30, 0x5D	; 93
     8b4:	f4 e0       	ldi	r31, 0x04	; 4
     8b6:	0c 94 16 13 	jmp	0x262c	; 0x262c <__prologue_saves__>
     8ba:	a8 e0       	ldi	r26, 0x08	; 8
     8bc:	4e 01       	movw	r8, r28
     8be:	08 94       	sec
     8c0:	81 1c       	adc	r8, r1
     8c2:	91 1c       	adc	r9, r1
     8c4:	f4 01       	movw	r30, r8
     8c6:	6a 2e       	mov	r6, r26
     8c8:	11 92       	st	Z+, r1
     8ca:	6a 94       	dec	r6
     8cc:	e9 f7       	brne	.-6      	; 0x8c8 <__udivdi3+0x1a>
     8ce:	29 83       	std	Y+1, r18	; 0x01
     8d0:	3a 83       	std	Y+2, r19	; 0x02
     8d2:	4b 83       	std	Y+3, r20	; 0x03
     8d4:	5c 83       	std	Y+4, r21	; 0x04
     8d6:	6d 83       	std	Y+5, r22	; 0x05
     8d8:	7e 83       	std	Y+6, r23	; 0x06
     8da:	8f 83       	std	Y+7, r24	; 0x07
     8dc:	98 87       	std	Y+8, r25	; 0x08
     8de:	ce 01       	movw	r24, r28
     8e0:	09 96       	adiw	r24, 0x09	; 9
     8e2:	fc 01       	movw	r30, r24
     8e4:	11 92       	st	Z+, r1
     8e6:	aa 95       	dec	r26
     8e8:	e9 f7       	brne	.-6      	; 0x8e4 <__udivdi3+0x36>
     8ea:	a9 86       	std	Y+9, r10	; 0x09
     8ec:	ba 86       	std	Y+10, r11	; 0x0a
     8ee:	cb 86       	std	Y+11, r12	; 0x0b
     8f0:	dc 86       	std	Y+12, r13	; 0x0c
     8f2:	ed 86       	std	Y+13, r14	; 0x0d
     8f4:	fe 86       	std	Y+14, r15	; 0x0e
     8f6:	0f 87       	std	Y+15, r16	; 0x0f
     8f8:	18 8b       	std	Y+16, r17	; 0x10
     8fa:	29 84       	ldd	r2, Y+9	; 0x09
     8fc:	3a 84       	ldd	r3, Y+10	; 0x0a
     8fe:	4b 84       	ldd	r4, Y+11	; 0x0b
     900:	5c 84       	ldd	r5, Y+12	; 0x0c
     902:	ed 84       	ldd	r14, Y+13	; 0x0d
     904:	fe 84       	ldd	r15, Y+14	; 0x0e
     906:	0f 85       	ldd	r16, Y+15	; 0x0f
     908:	18 89       	ldd	r17, Y+16	; 0x10
     90a:	69 80       	ldd	r6, Y+1	; 0x01
     90c:	7a 80       	ldd	r7, Y+2	; 0x02
     90e:	8b 80       	ldd	r8, Y+3	; 0x03
     910:	9c 80       	ldd	r9, Y+4	; 0x04
     912:	6d a6       	std	Y+45, r6	; 0x2d
     914:	7e a6       	std	Y+46, r7	; 0x2e
     916:	8f a6       	std	Y+47, r8	; 0x2f
     918:	98 aa       	std	Y+48, r9	; 0x30
     91a:	6d 80       	ldd	r6, Y+5	; 0x05
     91c:	7e 80       	ldd	r7, Y+6	; 0x06
     91e:	8f 80       	ldd	r8, Y+7	; 0x07
     920:	98 84       	ldd	r9, Y+8	; 0x08
     922:	e1 14       	cp	r14, r1
     924:	f1 04       	cpc	r15, r1
     926:	01 05       	cpc	r16, r1
     928:	11 05       	cpc	r17, r1
     92a:	09 f0       	breq	.+2      	; 0x92e <__udivdi3+0x80>
     92c:	b3 c3       	rjmp	.+1894   	; 0x1094 <__udivdi3+0x7e6>
     92e:	62 14       	cp	r6, r2
     930:	73 04       	cpc	r7, r3
     932:	84 04       	cpc	r8, r4
     934:	95 04       	cpc	r9, r5
     936:	08 f0       	brcs	.+2      	; 0x93a <__udivdi3+0x8c>
     938:	3d c1       	rjmp	.+634    	; 0xbb4 <__udivdi3+0x306>
     93a:	00 e0       	ldi	r16, 0x00	; 0
     93c:	20 16       	cp	r2, r16
     93e:	00 e0       	ldi	r16, 0x00	; 0
     940:	30 06       	cpc	r3, r16
     942:	01 e0       	ldi	r16, 0x01	; 1
     944:	40 06       	cpc	r4, r16
     946:	00 e0       	ldi	r16, 0x00	; 0
     948:	50 06       	cpc	r5, r16
     94a:	88 f4       	brcc	.+34     	; 0x96e <__udivdi3+0xc0>
     94c:	1f ef       	ldi	r17, 0xFF	; 255
     94e:	21 16       	cp	r2, r17
     950:	31 04       	cpc	r3, r1
     952:	41 04       	cpc	r4, r1
     954:	51 04       	cpc	r5, r1
     956:	39 f0       	breq	.+14     	; 0x966 <__udivdi3+0xb8>
     958:	30 f0       	brcs	.+12     	; 0x966 <__udivdi3+0xb8>
     95a:	48 e0       	ldi	r20, 0x08	; 8
     95c:	e4 2e       	mov	r14, r20
     95e:	f1 2c       	mov	r15, r1
     960:	01 2d       	mov	r16, r1
     962:	11 2d       	mov	r17, r1
     964:	18 c0       	rjmp	.+48     	; 0x996 <__udivdi3+0xe8>
     966:	ee 24       	eor	r14, r14
     968:	ff 24       	eor	r15, r15
     96a:	87 01       	movw	r16, r14
     96c:	14 c0       	rjmp	.+40     	; 0x996 <__udivdi3+0xe8>
     96e:	20 e0       	ldi	r18, 0x00	; 0
     970:	22 16       	cp	r2, r18
     972:	20 e0       	ldi	r18, 0x00	; 0
     974:	32 06       	cpc	r3, r18
     976:	20 e0       	ldi	r18, 0x00	; 0
     978:	42 06       	cpc	r4, r18
     97a:	21 e0       	ldi	r18, 0x01	; 1
     97c:	52 06       	cpc	r5, r18
     97e:	30 f0       	brcs	.+12     	; 0x98c <__udivdi3+0xde>
     980:	38 e1       	ldi	r19, 0x18	; 24
     982:	e3 2e       	mov	r14, r19
     984:	f1 2c       	mov	r15, r1
     986:	01 2d       	mov	r16, r1
     988:	11 2d       	mov	r17, r1
     98a:	05 c0       	rjmp	.+10     	; 0x996 <__udivdi3+0xe8>
     98c:	20 e1       	ldi	r18, 0x10	; 16
     98e:	e2 2e       	mov	r14, r18
     990:	f1 2c       	mov	r15, r1
     992:	01 2d       	mov	r16, r1
     994:	11 2d       	mov	r17, r1
     996:	d2 01       	movw	r26, r4
     998:	c1 01       	movw	r24, r2
     99a:	0e 2c       	mov	r0, r14
     99c:	04 c0       	rjmp	.+8      	; 0x9a6 <__udivdi3+0xf8>
     99e:	b6 95       	lsr	r27
     9a0:	a7 95       	ror	r26
     9a2:	97 95       	ror	r25
     9a4:	87 95       	ror	r24
     9a6:	0a 94       	dec	r0
     9a8:	d2 f7       	brpl	.-12     	; 0x99e <__udivdi3+0xf0>
     9aa:	87 54       	subi	r24, 0x47	; 71
     9ac:	9f 4f       	sbci	r25, 0xFF	; 255
     9ae:	dc 01       	movw	r26, r24
     9b0:	2c 91       	ld	r18, X
     9b2:	80 e2       	ldi	r24, 0x20	; 32
     9b4:	90 e0       	ldi	r25, 0x00	; 0
     9b6:	a0 e0       	ldi	r26, 0x00	; 0
     9b8:	b0 e0       	ldi	r27, 0x00	; 0
     9ba:	8e 19       	sub	r24, r14
     9bc:	9f 09       	sbc	r25, r15
     9be:	a0 0b       	sbc	r26, r16
     9c0:	b1 0b       	sbc	r27, r17
     9c2:	7c 01       	movw	r14, r24
     9c4:	8d 01       	movw	r16, r26
     9c6:	e2 1a       	sub	r14, r18
     9c8:	f1 08       	sbc	r15, r1
     9ca:	01 09       	sbc	r16, r1
     9cc:	11 09       	sbc	r17, r1
     9ce:	e1 14       	cp	r14, r1
     9d0:	f1 04       	cpc	r15, r1
     9d2:	01 05       	cpc	r16, r1
     9d4:	11 05       	cpc	r17, r1
     9d6:	a1 f1       	breq	.+104    	; 0xa40 <__udivdi3+0x192>
     9d8:	0e 2c       	mov	r0, r14
     9da:	04 c0       	rjmp	.+8      	; 0x9e4 <__udivdi3+0x136>
     9dc:	22 0c       	add	r2, r2
     9de:	33 1c       	adc	r3, r3
     9e0:	44 1c       	adc	r4, r4
     9e2:	55 1c       	adc	r5, r5
     9e4:	0a 94       	dec	r0
     9e6:	d2 f7       	brpl	.-12     	; 0x9dc <__udivdi3+0x12e>
     9e8:	a4 01       	movw	r20, r8
     9ea:	93 01       	movw	r18, r6
     9ec:	0e 2c       	mov	r0, r14
     9ee:	04 c0       	rjmp	.+8      	; 0x9f8 <__udivdi3+0x14a>
     9f0:	22 0f       	add	r18, r18
     9f2:	33 1f       	adc	r19, r19
     9f4:	44 1f       	adc	r20, r20
     9f6:	55 1f       	adc	r21, r21
     9f8:	0a 94       	dec	r0
     9fa:	d2 f7       	brpl	.-12     	; 0x9f0 <__udivdi3+0x142>
     9fc:	80 e2       	ldi	r24, 0x20	; 32
     9fe:	90 e0       	ldi	r25, 0x00	; 0
     a00:	8e 19       	sub	r24, r14
     a02:	9f 09       	sbc	r25, r15
     a04:	6d a4       	ldd	r6, Y+45	; 0x2d
     a06:	7e a4       	ldd	r7, Y+46	; 0x2e
     a08:	8f a4       	ldd	r8, Y+47	; 0x2f
     a0a:	98 a8       	ldd	r9, Y+48	; 0x30
     a0c:	04 c0       	rjmp	.+8      	; 0xa16 <__udivdi3+0x168>
     a0e:	96 94       	lsr	r9
     a10:	87 94       	ror	r8
     a12:	77 94       	ror	r7
     a14:	67 94       	ror	r6
     a16:	8a 95       	dec	r24
     a18:	d2 f7       	brpl	.-12     	; 0xa0e <__udivdi3+0x160>
     a1a:	62 2a       	or	r6, r18
     a1c:	73 2a       	or	r7, r19
     a1e:	84 2a       	or	r8, r20
     a20:	95 2a       	or	r9, r21
     a22:	ad a4       	ldd	r10, Y+45	; 0x2d
     a24:	be a4       	ldd	r11, Y+46	; 0x2e
     a26:	cf a4       	ldd	r12, Y+47	; 0x2f
     a28:	d8 a8       	ldd	r13, Y+48	; 0x30
     a2a:	04 c0       	rjmp	.+8      	; 0xa34 <__udivdi3+0x186>
     a2c:	aa 0c       	add	r10, r10
     a2e:	bb 1c       	adc	r11, r11
     a30:	cc 1c       	adc	r12, r12
     a32:	dd 1c       	adc	r13, r13
     a34:	ea 94       	dec	r14
     a36:	d2 f7       	brpl	.-12     	; 0xa2c <__udivdi3+0x17e>
     a38:	ad a6       	std	Y+45, r10	; 0x2d
     a3a:	be a6       	std	Y+46, r11	; 0x2e
     a3c:	cf a6       	std	Y+47, r12	; 0x2f
     a3e:	d8 aa       	std	Y+48, r13	; 0x30
     a40:	62 01       	movw	r12, r4
     a42:	ee 24       	eor	r14, r14
     a44:	ff 24       	eor	r15, r15
     a46:	cd aa       	std	Y+53, r12	; 0x35
     a48:	de aa       	std	Y+54, r13	; 0x36
     a4a:	ef aa       	std	Y+55, r14	; 0x37
     a4c:	f8 ae       	std	Y+56, r15	; 0x38
     a4e:	92 01       	movw	r18, r4
     a50:	81 01       	movw	r16, r2
     a52:	20 70       	andi	r18, 0x00	; 0
     a54:	30 70       	andi	r19, 0x00	; 0
     a56:	09 af       	std	Y+57, r16	; 0x39
     a58:	1a af       	std	Y+58, r17	; 0x3a
     a5a:	2b af       	std	Y+59, r18	; 0x3b
     a5c:	3c af       	std	Y+60, r19	; 0x3c
     a5e:	c4 01       	movw	r24, r8
     a60:	b3 01       	movw	r22, r6
     a62:	a7 01       	movw	r20, r14
     a64:	96 01       	movw	r18, r12
     a66:	0e 94 f4 12 	call	0x25e8	; 0x25e8 <__udivmodsi4>
     a6a:	7b 01       	movw	r14, r22
     a6c:	8c 01       	movw	r16, r24
     a6e:	c4 01       	movw	r24, r8
     a70:	b3 01       	movw	r22, r6
     a72:	2d a9       	ldd	r18, Y+53	; 0x35
     a74:	3e a9       	ldd	r19, Y+54	; 0x36
     a76:	4f a9       	ldd	r20, Y+55	; 0x37
     a78:	58 ad       	ldd	r21, Y+56	; 0x38
     a7a:	0e 94 f4 12 	call	0x25e8	; 0x25e8 <__udivmodsi4>
     a7e:	c9 01       	movw	r24, r18
     a80:	da 01       	movw	r26, r20
     a82:	3c 01       	movw	r6, r24
     a84:	4d 01       	movw	r8, r26
     a86:	c4 01       	movw	r24, r8
     a88:	b3 01       	movw	r22, r6
     a8a:	29 ad       	ldd	r18, Y+57	; 0x39
     a8c:	3a ad       	ldd	r19, Y+58	; 0x3a
     a8e:	4b ad       	ldd	r20, Y+59	; 0x3b
     a90:	5c ad       	ldd	r21, Y+60	; 0x3c
     a92:	0e 94 d5 12 	call	0x25aa	; 0x25aa <__mulsi3>
     a96:	9b 01       	movw	r18, r22
     a98:	ac 01       	movw	r20, r24
     a9a:	87 01       	movw	r16, r14
     a9c:	ff 24       	eor	r15, r15
     a9e:	ee 24       	eor	r14, r14
     aa0:	ad a4       	ldd	r10, Y+45	; 0x2d
     aa2:	be a4       	ldd	r11, Y+46	; 0x2e
     aa4:	cf a4       	ldd	r12, Y+47	; 0x2f
     aa6:	d8 a8       	ldd	r13, Y+48	; 0x30
     aa8:	c6 01       	movw	r24, r12
     aaa:	aa 27       	eor	r26, r26
     aac:	bb 27       	eor	r27, r27
     aae:	57 01       	movw	r10, r14
     ab0:	68 01       	movw	r12, r16
     ab2:	a8 2a       	or	r10, r24
     ab4:	b9 2a       	or	r11, r25
     ab6:	ca 2a       	or	r12, r26
     ab8:	db 2a       	or	r13, r27
     aba:	a2 16       	cp	r10, r18
     abc:	b3 06       	cpc	r11, r19
     abe:	c4 06       	cpc	r12, r20
     ac0:	d5 06       	cpc	r13, r21
     ac2:	e0 f4       	brcc	.+56     	; 0xafc <__udivdi3+0x24e>
     ac4:	08 94       	sec
     ac6:	61 08       	sbc	r6, r1
     ac8:	71 08       	sbc	r7, r1
     aca:	81 08       	sbc	r8, r1
     acc:	91 08       	sbc	r9, r1
     ace:	a2 0c       	add	r10, r2
     ad0:	b3 1c       	adc	r11, r3
     ad2:	c4 1c       	adc	r12, r4
     ad4:	d5 1c       	adc	r13, r5
     ad6:	a2 14       	cp	r10, r2
     ad8:	b3 04       	cpc	r11, r3
     ada:	c4 04       	cpc	r12, r4
     adc:	d5 04       	cpc	r13, r5
     ade:	70 f0       	brcs	.+28     	; 0xafc <__udivdi3+0x24e>
     ae0:	a2 16       	cp	r10, r18
     ae2:	b3 06       	cpc	r11, r19
     ae4:	c4 06       	cpc	r12, r20
     ae6:	d5 06       	cpc	r13, r21
     ae8:	48 f4       	brcc	.+18     	; 0xafc <__udivdi3+0x24e>
     aea:	08 94       	sec
     aec:	61 08       	sbc	r6, r1
     aee:	71 08       	sbc	r7, r1
     af0:	81 08       	sbc	r8, r1
     af2:	91 08       	sbc	r9, r1
     af4:	a2 0c       	add	r10, r2
     af6:	b3 1c       	adc	r11, r3
     af8:	c4 1c       	adc	r12, r4
     afa:	d5 1c       	adc	r13, r5
     afc:	a2 1a       	sub	r10, r18
     afe:	b3 0a       	sbc	r11, r19
     b00:	c4 0a       	sbc	r12, r20
     b02:	d5 0a       	sbc	r13, r21
     b04:	c6 01       	movw	r24, r12
     b06:	b5 01       	movw	r22, r10
     b08:	2d a9       	ldd	r18, Y+53	; 0x35
     b0a:	3e a9       	ldd	r19, Y+54	; 0x36
     b0c:	4f a9       	ldd	r20, Y+55	; 0x37
     b0e:	58 ad       	ldd	r21, Y+56	; 0x38
     b10:	0e 94 f4 12 	call	0x25e8	; 0x25e8 <__udivmodsi4>
     b14:	7b 01       	movw	r14, r22
     b16:	8c 01       	movw	r16, r24
     b18:	c6 01       	movw	r24, r12
     b1a:	b5 01       	movw	r22, r10
     b1c:	2d a9       	ldd	r18, Y+53	; 0x35
     b1e:	3e a9       	ldd	r19, Y+54	; 0x36
     b20:	4f a9       	ldd	r20, Y+55	; 0x37
     b22:	58 ad       	ldd	r21, Y+56	; 0x38
     b24:	0e 94 f4 12 	call	0x25e8	; 0x25e8 <__udivmodsi4>
     b28:	c9 01       	movw	r24, r18
     b2a:	da 01       	movw	r26, r20
     b2c:	5c 01       	movw	r10, r24
     b2e:	6d 01       	movw	r12, r26
     b30:	c6 01       	movw	r24, r12
     b32:	b5 01       	movw	r22, r10
     b34:	29 ad       	ldd	r18, Y+57	; 0x39
     b36:	3a ad       	ldd	r19, Y+58	; 0x3a
     b38:	4b ad       	ldd	r20, Y+59	; 0x3b
     b3a:	5c ad       	ldd	r21, Y+60	; 0x3c
     b3c:	0e 94 d5 12 	call	0x25aa	; 0x25aa <__mulsi3>
     b40:	9b 01       	movw	r18, r22
     b42:	ac 01       	movw	r20, r24
     b44:	87 01       	movw	r16, r14
     b46:	ff 24       	eor	r15, r15
     b48:	ee 24       	eor	r14, r14
     b4a:	8d a5       	ldd	r24, Y+45	; 0x2d
     b4c:	9e a5       	ldd	r25, Y+46	; 0x2e
     b4e:	af a5       	ldd	r26, Y+47	; 0x2f
     b50:	b8 a9       	ldd	r27, Y+48	; 0x30
     b52:	a0 70       	andi	r26, 0x00	; 0
     b54:	b0 70       	andi	r27, 0x00	; 0
     b56:	e8 2a       	or	r14, r24
     b58:	f9 2a       	or	r15, r25
     b5a:	0a 2b       	or	r16, r26
     b5c:	1b 2b       	or	r17, r27
     b5e:	e2 16       	cp	r14, r18
     b60:	f3 06       	cpc	r15, r19
     b62:	04 07       	cpc	r16, r20
     b64:	15 07       	cpc	r17, r21
     b66:	c0 f4       	brcc	.+48     	; 0xb98 <__udivdi3+0x2ea>
     b68:	08 94       	sec
     b6a:	a1 08       	sbc	r10, r1
     b6c:	b1 08       	sbc	r11, r1
     b6e:	c1 08       	sbc	r12, r1
     b70:	d1 08       	sbc	r13, r1
     b72:	e2 0c       	add	r14, r2
     b74:	f3 1c       	adc	r15, r3
     b76:	04 1d       	adc	r16, r4
     b78:	15 1d       	adc	r17, r5
     b7a:	e2 14       	cp	r14, r2
     b7c:	f3 04       	cpc	r15, r3
     b7e:	04 05       	cpc	r16, r4
     b80:	15 05       	cpc	r17, r5
     b82:	50 f0       	brcs	.+20     	; 0xb98 <__udivdi3+0x2ea>
     b84:	e2 16       	cp	r14, r18
     b86:	f3 06       	cpc	r15, r19
     b88:	04 07       	cpc	r16, r20
     b8a:	15 07       	cpc	r17, r21
     b8c:	28 f4       	brcc	.+10     	; 0xb98 <__udivdi3+0x2ea>
     b8e:	08 94       	sec
     b90:	a1 08       	sbc	r10, r1
     b92:	b1 08       	sbc	r11, r1
     b94:	c1 08       	sbc	r12, r1
     b96:	d1 08       	sbc	r13, r1
     b98:	d3 01       	movw	r26, r6
     b9a:	99 27       	eor	r25, r25
     b9c:	88 27       	eor	r24, r24
     b9e:	86 01       	movw	r16, r12
     ba0:	75 01       	movw	r14, r10
     ba2:	e8 2a       	or	r14, r24
     ba4:	f9 2a       	or	r15, r25
     ba6:	0a 2b       	or	r16, r26
     ba8:	1b 2b       	or	r17, r27
     baa:	e9 aa       	std	Y+49, r14	; 0x31
     bac:	fa aa       	std	Y+50, r15	; 0x32
     bae:	0b ab       	std	Y+51, r16	; 0x33
     bb0:	1c ab       	std	Y+52, r17	; 0x34
     bb2:	cf c4       	rjmp	.+2462   	; 0x1552 <__udivdi3+0xca4>
     bb4:	21 14       	cp	r2, r1
     bb6:	31 04       	cpc	r3, r1
     bb8:	41 04       	cpc	r4, r1
     bba:	51 04       	cpc	r5, r1
     bbc:	71 f4       	brne	.+28     	; 0xbda <__udivdi3+0x32c>
     bbe:	61 e0       	ldi	r22, 0x01	; 1
     bc0:	70 e0       	ldi	r23, 0x00	; 0
     bc2:	80 e0       	ldi	r24, 0x00	; 0
     bc4:	90 e0       	ldi	r25, 0x00	; 0
     bc6:	20 e0       	ldi	r18, 0x00	; 0
     bc8:	30 e0       	ldi	r19, 0x00	; 0
     bca:	40 e0       	ldi	r20, 0x00	; 0
     bcc:	50 e0       	ldi	r21, 0x00	; 0
     bce:	0e 94 f4 12 	call	0x25e8	; 0x25e8 <__udivmodsi4>
     bd2:	c9 01       	movw	r24, r18
     bd4:	da 01       	movw	r26, r20
     bd6:	1c 01       	movw	r2, r24
     bd8:	2d 01       	movw	r4, r26
     bda:	00 e0       	ldi	r16, 0x00	; 0
     bdc:	20 16       	cp	r2, r16
     bde:	00 e0       	ldi	r16, 0x00	; 0
     be0:	30 06       	cpc	r3, r16
     be2:	01 e0       	ldi	r16, 0x01	; 1
     be4:	40 06       	cpc	r4, r16
     be6:	00 e0       	ldi	r16, 0x00	; 0
     be8:	50 06       	cpc	r5, r16
     bea:	88 f4       	brcc	.+34     	; 0xc0e <__udivdi3+0x360>
     bec:	1f ef       	ldi	r17, 0xFF	; 255
     bee:	21 16       	cp	r2, r17
     bf0:	31 04       	cpc	r3, r1
     bf2:	41 04       	cpc	r4, r1
     bf4:	51 04       	cpc	r5, r1
     bf6:	31 f0       	breq	.+12     	; 0xc04 <__udivdi3+0x356>
     bf8:	28 f0       	brcs	.+10     	; 0xc04 <__udivdi3+0x356>
     bfa:	48 e0       	ldi	r20, 0x08	; 8
     bfc:	50 e0       	ldi	r21, 0x00	; 0
     bfe:	60 e0       	ldi	r22, 0x00	; 0
     c00:	70 e0       	ldi	r23, 0x00	; 0
     c02:	17 c0       	rjmp	.+46     	; 0xc32 <__udivdi3+0x384>
     c04:	40 e0       	ldi	r20, 0x00	; 0
     c06:	50 e0       	ldi	r21, 0x00	; 0
     c08:	60 e0       	ldi	r22, 0x00	; 0
     c0a:	70 e0       	ldi	r23, 0x00	; 0
     c0c:	12 c0       	rjmp	.+36     	; 0xc32 <__udivdi3+0x384>
     c0e:	20 e0       	ldi	r18, 0x00	; 0
     c10:	22 16       	cp	r2, r18
     c12:	20 e0       	ldi	r18, 0x00	; 0
     c14:	32 06       	cpc	r3, r18
     c16:	20 e0       	ldi	r18, 0x00	; 0
     c18:	42 06       	cpc	r4, r18
     c1a:	21 e0       	ldi	r18, 0x01	; 1
     c1c:	52 06       	cpc	r5, r18
     c1e:	28 f0       	brcs	.+10     	; 0xc2a <__udivdi3+0x37c>
     c20:	48 e1       	ldi	r20, 0x18	; 24
     c22:	50 e0       	ldi	r21, 0x00	; 0
     c24:	60 e0       	ldi	r22, 0x00	; 0
     c26:	70 e0       	ldi	r23, 0x00	; 0
     c28:	04 c0       	rjmp	.+8      	; 0xc32 <__udivdi3+0x384>
     c2a:	40 e1       	ldi	r20, 0x10	; 16
     c2c:	50 e0       	ldi	r21, 0x00	; 0
     c2e:	60 e0       	ldi	r22, 0x00	; 0
     c30:	70 e0       	ldi	r23, 0x00	; 0
     c32:	d2 01       	movw	r26, r4
     c34:	c1 01       	movw	r24, r2
     c36:	04 2e       	mov	r0, r20
     c38:	04 c0       	rjmp	.+8      	; 0xc42 <__udivdi3+0x394>
     c3a:	b6 95       	lsr	r27
     c3c:	a7 95       	ror	r26
     c3e:	97 95       	ror	r25
     c40:	87 95       	ror	r24
     c42:	0a 94       	dec	r0
     c44:	d2 f7       	brpl	.-12     	; 0xc3a <__udivdi3+0x38c>
     c46:	87 54       	subi	r24, 0x47	; 71
     c48:	9f 4f       	sbci	r25, 0xFF	; 255
     c4a:	dc 01       	movw	r26, r24
     c4c:	2c 91       	ld	r18, X
     c4e:	e0 e2       	ldi	r30, 0x20	; 32
     c50:	ee 2e       	mov	r14, r30
     c52:	f1 2c       	mov	r15, r1
     c54:	01 2d       	mov	r16, r1
     c56:	11 2d       	mov	r17, r1
     c58:	d8 01       	movw	r26, r16
     c5a:	c7 01       	movw	r24, r14
     c5c:	84 1b       	sub	r24, r20
     c5e:	95 0b       	sbc	r25, r21
     c60:	a6 0b       	sbc	r26, r22
     c62:	b7 0b       	sbc	r27, r23
     c64:	82 1b       	sub	r24, r18
     c66:	91 09       	sbc	r25, r1
     c68:	a1 09       	sbc	r26, r1
     c6a:	b1 09       	sbc	r27, r1
     c6c:	00 97       	sbiw	r24, 0x00	; 0
     c6e:	a1 05       	cpc	r26, r1
     c70:	b1 05       	cpc	r27, r1
     c72:	61 f4       	brne	.+24     	; 0xc8c <__udivdi3+0x3de>
     c74:	64 01       	movw	r12, r8
     c76:	53 01       	movw	r10, r6
     c78:	a2 18       	sub	r10, r2
     c7a:	b3 08       	sbc	r11, r3
     c7c:	c4 08       	sbc	r12, r4
     c7e:	d5 08       	sbc	r13, r5
     c80:	31 e0       	ldi	r19, 0x01	; 1
     c82:	63 2e       	mov	r6, r19
     c84:	71 2c       	mov	r7, r1
     c86:	81 2c       	mov	r8, r1
     c88:	91 2c       	mov	r9, r1
     c8a:	1e c1       	rjmp	.+572    	; 0xec8 <__udivdi3+0x61a>
     c8c:	6f 96       	adiw	r28, 0x1f	; 31
     c8e:	8f af       	std	Y+63, r24	; 0x3f
     c90:	6f 97       	sbiw	r28, 0x1f	; 31
     c92:	08 2e       	mov	r0, r24
     c94:	04 c0       	rjmp	.+8      	; 0xc9e <__udivdi3+0x3f0>
     c96:	22 0c       	add	r2, r2
     c98:	33 1c       	adc	r3, r3
     c9a:	44 1c       	adc	r4, r4
     c9c:	55 1c       	adc	r5, r5
     c9e:	0a 94       	dec	r0
     ca0:	d2 f7       	brpl	.-12     	; 0xc96 <__udivdi3+0x3e8>
     ca2:	ee 2d       	mov	r30, r14
     ca4:	e8 1b       	sub	r30, r24
     ca6:	64 01       	movw	r12, r8
     ca8:	53 01       	movw	r10, r6
     caa:	0e 2e       	mov	r0, r30
     cac:	04 c0       	rjmp	.+8      	; 0xcb6 <__udivdi3+0x408>
     cae:	d6 94       	lsr	r13
     cb0:	c7 94       	ror	r12
     cb2:	b7 94       	ror	r11
     cb4:	a7 94       	ror	r10
     cb6:	0a 94       	dec	r0
     cb8:	d2 f7       	brpl	.-12     	; 0xcae <__udivdi3+0x400>
     cba:	a4 01       	movw	r20, r8
     cbc:	93 01       	movw	r18, r6
     cbe:	6f 96       	adiw	r28, 0x1f	; 31
     cc0:	0f ac       	ldd	r0, Y+63	; 0x3f
     cc2:	6f 97       	sbiw	r28, 0x1f	; 31
     cc4:	04 c0       	rjmp	.+8      	; 0xcce <__udivdi3+0x420>
     cc6:	22 0f       	add	r18, r18
     cc8:	33 1f       	adc	r19, r19
     cca:	44 1f       	adc	r20, r20
     ccc:	55 1f       	adc	r21, r21
     cce:	0a 94       	dec	r0
     cd0:	d2 f7       	brpl	.-12     	; 0xcc6 <__udivdi3+0x418>
     cd2:	6d a4       	ldd	r6, Y+45	; 0x2d
     cd4:	7e a4       	ldd	r7, Y+46	; 0x2e
     cd6:	8f a4       	ldd	r8, Y+47	; 0x2f
     cd8:	98 a8       	ldd	r9, Y+48	; 0x30
     cda:	0e 2e       	mov	r0, r30
     cdc:	04 c0       	rjmp	.+8      	; 0xce6 <__udivdi3+0x438>
     cde:	96 94       	lsr	r9
     ce0:	87 94       	ror	r8
     ce2:	77 94       	ror	r7
     ce4:	67 94       	ror	r6
     ce6:	0a 94       	dec	r0
     ce8:	d2 f7       	brpl	.-12     	; 0xcde <__udivdi3+0x430>
     cea:	84 01       	movw	r16, r8
     cec:	73 01       	movw	r14, r6
     cee:	e2 2a       	or	r14, r18
     cf0:	f3 2a       	or	r15, r19
     cf2:	04 2b       	or	r16, r20
     cf4:	15 2b       	or	r17, r21
     cf6:	e9 a6       	std	Y+41, r14	; 0x29
     cf8:	fa a6       	std	Y+42, r15	; 0x2a
     cfa:	0b a7       	std	Y+43, r16	; 0x2b
     cfc:	1c a7       	std	Y+44, r17	; 0x2c
     cfe:	32 01       	movw	r6, r4
     d00:	88 24       	eor	r8, r8
     d02:	99 24       	eor	r9, r9
     d04:	92 01       	movw	r18, r4
     d06:	81 01       	movw	r16, r2
     d08:	20 70       	andi	r18, 0x00	; 0
     d0a:	30 70       	andi	r19, 0x00	; 0
     d0c:	21 96       	adiw	r28, 0x01	; 1
     d0e:	0c af       	std	Y+60, r16	; 0x3c
     d10:	1d af       	std	Y+61, r17	; 0x3d
     d12:	2e af       	std	Y+62, r18	; 0x3e
     d14:	3f af       	std	Y+63, r19	; 0x3f
     d16:	21 97       	sbiw	r28, 0x01	; 1
     d18:	c6 01       	movw	r24, r12
     d1a:	b5 01       	movw	r22, r10
     d1c:	a4 01       	movw	r20, r8
     d1e:	93 01       	movw	r18, r6
     d20:	0e 94 f4 12 	call	0x25e8	; 0x25e8 <__udivmodsi4>
     d24:	7b 01       	movw	r14, r22
     d26:	8c 01       	movw	r16, r24
     d28:	c6 01       	movw	r24, r12
     d2a:	b5 01       	movw	r22, r10
     d2c:	a4 01       	movw	r20, r8
     d2e:	93 01       	movw	r18, r6
     d30:	0e 94 f4 12 	call	0x25e8	; 0x25e8 <__udivmodsi4>
     d34:	c9 01       	movw	r24, r18
     d36:	da 01       	movw	r26, r20
     d38:	25 96       	adiw	r28, 0x05	; 5
     d3a:	8c af       	std	Y+60, r24	; 0x3c
     d3c:	9d af       	std	Y+61, r25	; 0x3d
     d3e:	ae af       	std	Y+62, r26	; 0x3e
     d40:	bf af       	std	Y+63, r27	; 0x3f
     d42:	25 97       	sbiw	r28, 0x05	; 5
     d44:	bc 01       	movw	r22, r24
     d46:	cd 01       	movw	r24, r26
     d48:	21 96       	adiw	r28, 0x01	; 1
     d4a:	2c ad       	ldd	r18, Y+60	; 0x3c
     d4c:	3d ad       	ldd	r19, Y+61	; 0x3d
     d4e:	4e ad       	ldd	r20, Y+62	; 0x3e
     d50:	5f ad       	ldd	r21, Y+63	; 0x3f
     d52:	21 97       	sbiw	r28, 0x01	; 1
     d54:	0e 94 d5 12 	call	0x25aa	; 0x25aa <__mulsi3>
     d58:	9b 01       	movw	r18, r22
     d5a:	ac 01       	movw	r20, r24
     d5c:	87 01       	movw	r16, r14
     d5e:	ff 24       	eor	r15, r15
     d60:	ee 24       	eor	r14, r14
     d62:	a9 a4       	ldd	r10, Y+41	; 0x29
     d64:	ba a4       	ldd	r11, Y+42	; 0x2a
     d66:	cb a4       	ldd	r12, Y+43	; 0x2b
     d68:	dc a4       	ldd	r13, Y+44	; 0x2c
     d6a:	c6 01       	movw	r24, r12
     d6c:	aa 27       	eor	r26, r26
     d6e:	bb 27       	eor	r27, r27
     d70:	5c 01       	movw	r10, r24
     d72:	6d 01       	movw	r12, r26
     d74:	ae 28       	or	r10, r14
     d76:	bf 28       	or	r11, r15
     d78:	c0 2a       	or	r12, r16
     d7a:	d1 2a       	or	r13, r17
     d7c:	a2 16       	cp	r10, r18
     d7e:	b3 06       	cpc	r11, r19
     d80:	c4 06       	cpc	r12, r20
     d82:	d5 06       	cpc	r13, r21
     d84:	60 f5       	brcc	.+88     	; 0xdde <__udivdi3+0x530>
     d86:	25 96       	adiw	r28, 0x05	; 5
     d88:	6c ad       	ldd	r22, Y+60	; 0x3c
     d8a:	7d ad       	ldd	r23, Y+61	; 0x3d
     d8c:	8e ad       	ldd	r24, Y+62	; 0x3e
     d8e:	9f ad       	ldd	r25, Y+63	; 0x3f
     d90:	25 97       	sbiw	r28, 0x05	; 5
     d92:	61 50       	subi	r22, 0x01	; 1
     d94:	70 40       	sbci	r23, 0x00	; 0
     d96:	80 40       	sbci	r24, 0x00	; 0
     d98:	90 40       	sbci	r25, 0x00	; 0
     d9a:	25 96       	adiw	r28, 0x05	; 5
     d9c:	6c af       	std	Y+60, r22	; 0x3c
     d9e:	7d af       	std	Y+61, r23	; 0x3d
     da0:	8e af       	std	Y+62, r24	; 0x3e
     da2:	9f af       	std	Y+63, r25	; 0x3f
     da4:	25 97       	sbiw	r28, 0x05	; 5
     da6:	a2 0c       	add	r10, r2
     da8:	b3 1c       	adc	r11, r3
     daa:	c4 1c       	adc	r12, r4
     dac:	d5 1c       	adc	r13, r5
     dae:	a2 14       	cp	r10, r2
     db0:	b3 04       	cpc	r11, r3
     db2:	c4 04       	cpc	r12, r4
     db4:	d5 04       	cpc	r13, r5
     db6:	98 f0       	brcs	.+38     	; 0xdde <__udivdi3+0x530>
     db8:	a2 16       	cp	r10, r18
     dba:	b3 06       	cpc	r11, r19
     dbc:	c4 06       	cpc	r12, r20
     dbe:	d5 06       	cpc	r13, r21
     dc0:	70 f4       	brcc	.+28     	; 0xdde <__udivdi3+0x530>
     dc2:	61 50       	subi	r22, 0x01	; 1
     dc4:	70 40       	sbci	r23, 0x00	; 0
     dc6:	80 40       	sbci	r24, 0x00	; 0
     dc8:	90 40       	sbci	r25, 0x00	; 0
     dca:	25 96       	adiw	r28, 0x05	; 5
     dcc:	6c af       	std	Y+60, r22	; 0x3c
     dce:	7d af       	std	Y+61, r23	; 0x3d
     dd0:	8e af       	std	Y+62, r24	; 0x3e
     dd2:	9f af       	std	Y+63, r25	; 0x3f
     dd4:	25 97       	sbiw	r28, 0x05	; 5
     dd6:	a2 0c       	add	r10, r2
     dd8:	b3 1c       	adc	r11, r3
     dda:	c4 1c       	adc	r12, r4
     ddc:	d5 1c       	adc	r13, r5
     dde:	a2 1a       	sub	r10, r18
     de0:	b3 0a       	sbc	r11, r19
     de2:	c4 0a       	sbc	r12, r20
     de4:	d5 0a       	sbc	r13, r21
     de6:	c6 01       	movw	r24, r12
     de8:	b5 01       	movw	r22, r10
     dea:	a4 01       	movw	r20, r8
     dec:	93 01       	movw	r18, r6
     dee:	0e 94 f4 12 	call	0x25e8	; 0x25e8 <__udivmodsi4>
     df2:	7b 01       	movw	r14, r22
     df4:	8c 01       	movw	r16, r24
     df6:	c6 01       	movw	r24, r12
     df8:	b5 01       	movw	r22, r10
     dfa:	a4 01       	movw	r20, r8
     dfc:	93 01       	movw	r18, r6
     dfe:	0e 94 f4 12 	call	0x25e8	; 0x25e8 <__udivmodsi4>
     e02:	c9 01       	movw	r24, r18
     e04:	da 01       	movw	r26, r20
     e06:	3c 01       	movw	r6, r24
     e08:	4d 01       	movw	r8, r26
     e0a:	c4 01       	movw	r24, r8
     e0c:	b3 01       	movw	r22, r6
     e0e:	21 96       	adiw	r28, 0x01	; 1
     e10:	2c ad       	ldd	r18, Y+60	; 0x3c
     e12:	3d ad       	ldd	r19, Y+61	; 0x3d
     e14:	4e ad       	ldd	r20, Y+62	; 0x3e
     e16:	5f ad       	ldd	r21, Y+63	; 0x3f
     e18:	21 97       	sbiw	r28, 0x01	; 1
     e1a:	0e 94 d5 12 	call	0x25aa	; 0x25aa <__mulsi3>
     e1e:	9b 01       	movw	r18, r22
     e20:	ac 01       	movw	r20, r24
     e22:	87 01       	movw	r16, r14
     e24:	ff 24       	eor	r15, r15
     e26:	ee 24       	eor	r14, r14
     e28:	89 a5       	ldd	r24, Y+41	; 0x29
     e2a:	9a a5       	ldd	r25, Y+42	; 0x2a
     e2c:	ab a5       	ldd	r26, Y+43	; 0x2b
     e2e:	bc a5       	ldd	r27, Y+44	; 0x2c
     e30:	a0 70       	andi	r26, 0x00	; 0
     e32:	b0 70       	andi	r27, 0x00	; 0
     e34:	57 01       	movw	r10, r14
     e36:	68 01       	movw	r12, r16
     e38:	a8 2a       	or	r10, r24
     e3a:	b9 2a       	or	r11, r25
     e3c:	ca 2a       	or	r12, r26
     e3e:	db 2a       	or	r13, r27
     e40:	a2 16       	cp	r10, r18
     e42:	b3 06       	cpc	r11, r19
     e44:	c4 06       	cpc	r12, r20
     e46:	d5 06       	cpc	r13, r21
     e48:	e0 f4       	brcc	.+56     	; 0xe82 <__udivdi3+0x5d4>
     e4a:	08 94       	sec
     e4c:	61 08       	sbc	r6, r1
     e4e:	71 08       	sbc	r7, r1
     e50:	81 08       	sbc	r8, r1
     e52:	91 08       	sbc	r9, r1
     e54:	a2 0c       	add	r10, r2
     e56:	b3 1c       	adc	r11, r3
     e58:	c4 1c       	adc	r12, r4
     e5a:	d5 1c       	adc	r13, r5
     e5c:	a2 14       	cp	r10, r2
     e5e:	b3 04       	cpc	r11, r3
     e60:	c4 04       	cpc	r12, r4
     e62:	d5 04       	cpc	r13, r5
     e64:	70 f0       	brcs	.+28     	; 0xe82 <__udivdi3+0x5d4>
     e66:	a2 16       	cp	r10, r18
     e68:	b3 06       	cpc	r11, r19
     e6a:	c4 06       	cpc	r12, r20
     e6c:	d5 06       	cpc	r13, r21
     e6e:	48 f4       	brcc	.+18     	; 0xe82 <__udivdi3+0x5d4>
     e70:	08 94       	sec
     e72:	61 08       	sbc	r6, r1
     e74:	71 08       	sbc	r7, r1
     e76:	81 08       	sbc	r8, r1
     e78:	91 08       	sbc	r9, r1
     e7a:	a2 0c       	add	r10, r2
     e7c:	b3 1c       	adc	r11, r3
     e7e:	c4 1c       	adc	r12, r4
     e80:	d5 1c       	adc	r13, r5
     e82:	8d a5       	ldd	r24, Y+45	; 0x2d
     e84:	9e a5       	ldd	r25, Y+46	; 0x2e
     e86:	af a5       	ldd	r26, Y+47	; 0x2f
     e88:	b8 a9       	ldd	r27, Y+48	; 0x30
     e8a:	6f 96       	adiw	r28, 0x1f	; 31
     e8c:	0f ac       	ldd	r0, Y+63	; 0x3f
     e8e:	6f 97       	sbiw	r28, 0x1f	; 31
     e90:	04 c0       	rjmp	.+8      	; 0xe9a <__udivdi3+0x5ec>
     e92:	88 0f       	add	r24, r24
     e94:	99 1f       	adc	r25, r25
     e96:	aa 1f       	adc	r26, r26
     e98:	bb 1f       	adc	r27, r27
     e9a:	0a 94       	dec	r0
     e9c:	d2 f7       	brpl	.-12     	; 0xe92 <__udivdi3+0x5e4>
     e9e:	8d a7       	std	Y+45, r24	; 0x2d
     ea0:	9e a7       	std	Y+46, r25	; 0x2e
     ea2:	af a7       	std	Y+47, r26	; 0x2f
     ea4:	b8 ab       	std	Y+48, r27	; 0x30
     ea6:	a2 1a       	sub	r10, r18
     ea8:	b3 0a       	sbc	r11, r19
     eaa:	c4 0a       	sbc	r12, r20
     eac:	d5 0a       	sbc	r13, r21
     eae:	25 96       	adiw	r28, 0x05	; 5
     eb0:	ec ac       	ldd	r14, Y+60	; 0x3c
     eb2:	fd ac       	ldd	r15, Y+61	; 0x3d
     eb4:	0e ad       	ldd	r16, Y+62	; 0x3e
     eb6:	1f ad       	ldd	r17, Y+63	; 0x3f
     eb8:	25 97       	sbiw	r28, 0x05	; 5
     eba:	d7 01       	movw	r26, r14
     ebc:	99 27       	eor	r25, r25
     ebe:	88 27       	eor	r24, r24
     ec0:	68 2a       	or	r6, r24
     ec2:	79 2a       	or	r7, r25
     ec4:	8a 2a       	or	r8, r26
     ec6:	9b 2a       	or	r9, r27
     ec8:	82 01       	movw	r16, r4
     eca:	22 27       	eor	r18, r18
     ecc:	33 27       	eor	r19, r19
     ece:	29 96       	adiw	r28, 0x09	; 9
     ed0:	0c af       	std	Y+60, r16	; 0x3c
     ed2:	1d af       	std	Y+61, r17	; 0x3d
     ed4:	2e af       	std	Y+62, r18	; 0x3e
     ed6:	3f af       	std	Y+63, r19	; 0x3f
     ed8:	29 97       	sbiw	r28, 0x09	; 9
     eda:	a2 01       	movw	r20, r4
     edc:	91 01       	movw	r18, r2
     ede:	40 70       	andi	r20, 0x00	; 0
     ee0:	50 70       	andi	r21, 0x00	; 0
     ee2:	2d 96       	adiw	r28, 0x0d	; 13
     ee4:	2c af       	std	Y+60, r18	; 0x3c
     ee6:	3d af       	std	Y+61, r19	; 0x3d
     ee8:	4e af       	std	Y+62, r20	; 0x3e
     eea:	5f af       	std	Y+63, r21	; 0x3f
     eec:	2d 97       	sbiw	r28, 0x0d	; 13
     eee:	c6 01       	movw	r24, r12
     ef0:	b5 01       	movw	r22, r10
     ef2:	29 96       	adiw	r28, 0x09	; 9
     ef4:	2c ad       	ldd	r18, Y+60	; 0x3c
     ef6:	3d ad       	ldd	r19, Y+61	; 0x3d
     ef8:	4e ad       	ldd	r20, Y+62	; 0x3e
     efa:	5f ad       	ldd	r21, Y+63	; 0x3f
     efc:	29 97       	sbiw	r28, 0x09	; 9
     efe:	0e 94 f4 12 	call	0x25e8	; 0x25e8 <__udivmodsi4>
     f02:	7b 01       	movw	r14, r22
     f04:	8c 01       	movw	r16, r24
     f06:	c6 01       	movw	r24, r12
     f08:	b5 01       	movw	r22, r10
     f0a:	29 96       	adiw	r28, 0x09	; 9
     f0c:	2c ad       	ldd	r18, Y+60	; 0x3c
     f0e:	3d ad       	ldd	r19, Y+61	; 0x3d
     f10:	4e ad       	ldd	r20, Y+62	; 0x3e
     f12:	5f ad       	ldd	r21, Y+63	; 0x3f
     f14:	29 97       	sbiw	r28, 0x09	; 9
     f16:	0e 94 f4 12 	call	0x25e8	; 0x25e8 <__udivmodsi4>
     f1a:	c9 01       	movw	r24, r18
     f1c:	da 01       	movw	r26, r20
     f1e:	61 96       	adiw	r28, 0x11	; 17
     f20:	8c af       	std	Y+60, r24	; 0x3c
     f22:	9d af       	std	Y+61, r25	; 0x3d
     f24:	ae af       	std	Y+62, r26	; 0x3e
     f26:	bf af       	std	Y+63, r27	; 0x3f
     f28:	61 97       	sbiw	r28, 0x11	; 17
     f2a:	bc 01       	movw	r22, r24
     f2c:	cd 01       	movw	r24, r26
     f2e:	2d 96       	adiw	r28, 0x0d	; 13
     f30:	2c ad       	ldd	r18, Y+60	; 0x3c
     f32:	3d ad       	ldd	r19, Y+61	; 0x3d
     f34:	4e ad       	ldd	r20, Y+62	; 0x3e
     f36:	5f ad       	ldd	r21, Y+63	; 0x3f
     f38:	2d 97       	sbiw	r28, 0x0d	; 13
     f3a:	0e 94 d5 12 	call	0x25aa	; 0x25aa <__mulsi3>
     f3e:	9b 01       	movw	r18, r22
     f40:	ac 01       	movw	r20, r24
     f42:	87 01       	movw	r16, r14
     f44:	ff 24       	eor	r15, r15
     f46:	ee 24       	eor	r14, r14
     f48:	ad a4       	ldd	r10, Y+45	; 0x2d
     f4a:	be a4       	ldd	r11, Y+46	; 0x2e
     f4c:	cf a4       	ldd	r12, Y+47	; 0x2f
     f4e:	d8 a8       	ldd	r13, Y+48	; 0x30
     f50:	c6 01       	movw	r24, r12
     f52:	aa 27       	eor	r26, r26
     f54:	bb 27       	eor	r27, r27
     f56:	57 01       	movw	r10, r14
     f58:	68 01       	movw	r12, r16
     f5a:	a8 2a       	or	r10, r24
     f5c:	b9 2a       	or	r11, r25
     f5e:	ca 2a       	or	r12, r26
     f60:	db 2a       	or	r13, r27
     f62:	a2 16       	cp	r10, r18
     f64:	b3 06       	cpc	r11, r19
     f66:	c4 06       	cpc	r12, r20
     f68:	d5 06       	cpc	r13, r21
     f6a:	60 f5       	brcc	.+88     	; 0xfc4 <__udivdi3+0x716>
     f6c:	61 96       	adiw	r28, 0x11	; 17
     f6e:	6c ad       	ldd	r22, Y+60	; 0x3c
     f70:	7d ad       	ldd	r23, Y+61	; 0x3d
     f72:	8e ad       	ldd	r24, Y+62	; 0x3e
     f74:	9f ad       	ldd	r25, Y+63	; 0x3f
     f76:	61 97       	sbiw	r28, 0x11	; 17
     f78:	61 50       	subi	r22, 0x01	; 1
     f7a:	70 40       	sbci	r23, 0x00	; 0
     f7c:	80 40       	sbci	r24, 0x00	; 0
     f7e:	90 40       	sbci	r25, 0x00	; 0
     f80:	61 96       	adiw	r28, 0x11	; 17
     f82:	6c af       	std	Y+60, r22	; 0x3c
     f84:	7d af       	std	Y+61, r23	; 0x3d
     f86:	8e af       	std	Y+62, r24	; 0x3e
     f88:	9f af       	std	Y+63, r25	; 0x3f
     f8a:	61 97       	sbiw	r28, 0x11	; 17
     f8c:	a2 0c       	add	r10, r2
     f8e:	b3 1c       	adc	r11, r3
     f90:	c4 1c       	adc	r12, r4
     f92:	d5 1c       	adc	r13, r5
     f94:	a2 14       	cp	r10, r2
     f96:	b3 04       	cpc	r11, r3
     f98:	c4 04       	cpc	r12, r4
     f9a:	d5 04       	cpc	r13, r5
     f9c:	98 f0       	brcs	.+38     	; 0xfc4 <__udivdi3+0x716>
     f9e:	a2 16       	cp	r10, r18
     fa0:	b3 06       	cpc	r11, r19
     fa2:	c4 06       	cpc	r12, r20
     fa4:	d5 06       	cpc	r13, r21
     fa6:	70 f4       	brcc	.+28     	; 0xfc4 <__udivdi3+0x716>
     fa8:	61 50       	subi	r22, 0x01	; 1
     faa:	70 40       	sbci	r23, 0x00	; 0
     fac:	80 40       	sbci	r24, 0x00	; 0
     fae:	90 40       	sbci	r25, 0x00	; 0
     fb0:	61 96       	adiw	r28, 0x11	; 17
     fb2:	6c af       	std	Y+60, r22	; 0x3c
     fb4:	7d af       	std	Y+61, r23	; 0x3d
     fb6:	8e af       	std	Y+62, r24	; 0x3e
     fb8:	9f af       	std	Y+63, r25	; 0x3f
     fba:	61 97       	sbiw	r28, 0x11	; 17
     fbc:	a2 0c       	add	r10, r2
     fbe:	b3 1c       	adc	r11, r3
     fc0:	c4 1c       	adc	r12, r4
     fc2:	d5 1c       	adc	r13, r5
     fc4:	a2 1a       	sub	r10, r18
     fc6:	b3 0a       	sbc	r11, r19
     fc8:	c4 0a       	sbc	r12, r20
     fca:	d5 0a       	sbc	r13, r21
     fcc:	c6 01       	movw	r24, r12
     fce:	b5 01       	movw	r22, r10
     fd0:	29 96       	adiw	r28, 0x09	; 9
     fd2:	2c ad       	ldd	r18, Y+60	; 0x3c
     fd4:	3d ad       	ldd	r19, Y+61	; 0x3d
     fd6:	4e ad       	ldd	r20, Y+62	; 0x3e
     fd8:	5f ad       	ldd	r21, Y+63	; 0x3f
     fda:	29 97       	sbiw	r28, 0x09	; 9
     fdc:	0e 94 f4 12 	call	0x25e8	; 0x25e8 <__udivmodsi4>
     fe0:	7b 01       	movw	r14, r22
     fe2:	8c 01       	movw	r16, r24
     fe4:	c6 01       	movw	r24, r12
     fe6:	b5 01       	movw	r22, r10
     fe8:	29 96       	adiw	r28, 0x09	; 9
     fea:	2c ad       	ldd	r18, Y+60	; 0x3c
     fec:	3d ad       	ldd	r19, Y+61	; 0x3d
     fee:	4e ad       	ldd	r20, Y+62	; 0x3e
     ff0:	5f ad       	ldd	r21, Y+63	; 0x3f
     ff2:	29 97       	sbiw	r28, 0x09	; 9
     ff4:	0e 94 f4 12 	call	0x25e8	; 0x25e8 <__udivmodsi4>
     ff8:	c9 01       	movw	r24, r18
     ffa:	da 01       	movw	r26, r20
     ffc:	5c 01       	movw	r10, r24
     ffe:	6d 01       	movw	r12, r26
    1000:	c6 01       	movw	r24, r12
    1002:	b5 01       	movw	r22, r10
    1004:	2d 96       	adiw	r28, 0x0d	; 13
    1006:	2c ad       	ldd	r18, Y+60	; 0x3c
    1008:	3d ad       	ldd	r19, Y+61	; 0x3d
    100a:	4e ad       	ldd	r20, Y+62	; 0x3e
    100c:	5f ad       	ldd	r21, Y+63	; 0x3f
    100e:	2d 97       	sbiw	r28, 0x0d	; 13
    1010:	0e 94 d5 12 	call	0x25aa	; 0x25aa <__mulsi3>
    1014:	9b 01       	movw	r18, r22
    1016:	ac 01       	movw	r20, r24
    1018:	87 01       	movw	r16, r14
    101a:	ff 24       	eor	r15, r15
    101c:	ee 24       	eor	r14, r14
    101e:	8d a5       	ldd	r24, Y+45	; 0x2d
    1020:	9e a5       	ldd	r25, Y+46	; 0x2e
    1022:	af a5       	ldd	r26, Y+47	; 0x2f
    1024:	b8 a9       	ldd	r27, Y+48	; 0x30
    1026:	a0 70       	andi	r26, 0x00	; 0
    1028:	b0 70       	andi	r27, 0x00	; 0
    102a:	e8 2a       	or	r14, r24
    102c:	f9 2a       	or	r15, r25
    102e:	0a 2b       	or	r16, r26
    1030:	1b 2b       	or	r17, r27
    1032:	e2 16       	cp	r14, r18
    1034:	f3 06       	cpc	r15, r19
    1036:	04 07       	cpc	r16, r20
    1038:	15 07       	cpc	r17, r21
    103a:	c0 f4       	brcc	.+48     	; 0x106c <__udivdi3+0x7be>
    103c:	08 94       	sec
    103e:	a1 08       	sbc	r10, r1
    1040:	b1 08       	sbc	r11, r1
    1042:	c1 08       	sbc	r12, r1
    1044:	d1 08       	sbc	r13, r1
    1046:	e2 0c       	add	r14, r2
    1048:	f3 1c       	adc	r15, r3
    104a:	04 1d       	adc	r16, r4
    104c:	15 1d       	adc	r17, r5
    104e:	e2 14       	cp	r14, r2
    1050:	f3 04       	cpc	r15, r3
    1052:	04 05       	cpc	r16, r4
    1054:	15 05       	cpc	r17, r5
    1056:	50 f0       	brcs	.+20     	; 0x106c <__udivdi3+0x7be>
    1058:	e2 16       	cp	r14, r18
    105a:	f3 06       	cpc	r15, r19
    105c:	04 07       	cpc	r16, r20
    105e:	15 07       	cpc	r17, r21
    1060:	28 f4       	brcc	.+10     	; 0x106c <__udivdi3+0x7be>
    1062:	08 94       	sec
    1064:	a1 08       	sbc	r10, r1
    1066:	b1 08       	sbc	r11, r1
    1068:	c1 08       	sbc	r12, r1
    106a:	d1 08       	sbc	r13, r1
    106c:	61 96       	adiw	r28, 0x11	; 17
    106e:	ec ac       	ldd	r14, Y+60	; 0x3c
    1070:	fd ac       	ldd	r15, Y+61	; 0x3d
    1072:	0e ad       	ldd	r16, Y+62	; 0x3e
    1074:	1f ad       	ldd	r17, Y+63	; 0x3f
    1076:	61 97       	sbiw	r28, 0x11	; 17
    1078:	d7 01       	movw	r26, r14
    107a:	99 27       	eor	r25, r25
    107c:	88 27       	eor	r24, r24
    107e:	96 01       	movw	r18, r12
    1080:	85 01       	movw	r16, r10
    1082:	08 2b       	or	r16, r24
    1084:	19 2b       	or	r17, r25
    1086:	2a 2b       	or	r18, r26
    1088:	3b 2b       	or	r19, r27
    108a:	09 ab       	std	Y+49, r16	; 0x31
    108c:	1a ab       	std	Y+50, r17	; 0x32
    108e:	2b ab       	std	Y+51, r18	; 0x33
    1090:	3c ab       	std	Y+52, r19	; 0x34
    1092:	62 c2       	rjmp	.+1220   	; 0x1558 <__udivdi3+0xcaa>
    1094:	6e 14       	cp	r6, r14
    1096:	7f 04       	cpc	r7, r15
    1098:	80 06       	cpc	r8, r16
    109a:	91 06       	cpc	r9, r17
    109c:	08 f4       	brcc	.+2      	; 0x10a0 <__udivdi3+0x7f2>
    109e:	51 c2       	rjmp	.+1186   	; 0x1542 <__udivdi3+0xc94>
    10a0:	20 e0       	ldi	r18, 0x00	; 0
    10a2:	e2 16       	cp	r14, r18
    10a4:	20 e0       	ldi	r18, 0x00	; 0
    10a6:	f2 06       	cpc	r15, r18
    10a8:	21 e0       	ldi	r18, 0x01	; 1
    10aa:	02 07       	cpc	r16, r18
    10ac:	20 e0       	ldi	r18, 0x00	; 0
    10ae:	12 07       	cpc	r17, r18
    10b0:	88 f4       	brcc	.+34     	; 0x10d4 <__udivdi3+0x826>
    10b2:	3f ef       	ldi	r19, 0xFF	; 255
    10b4:	e3 16       	cp	r14, r19
    10b6:	f1 04       	cpc	r15, r1
    10b8:	01 05       	cpc	r16, r1
    10ba:	11 05       	cpc	r17, r1
    10bc:	31 f0       	breq	.+12     	; 0x10ca <__udivdi3+0x81c>
    10be:	28 f0       	brcs	.+10     	; 0x10ca <__udivdi3+0x81c>
    10c0:	48 e0       	ldi	r20, 0x08	; 8
    10c2:	50 e0       	ldi	r21, 0x00	; 0
    10c4:	60 e0       	ldi	r22, 0x00	; 0
    10c6:	70 e0       	ldi	r23, 0x00	; 0
    10c8:	17 c0       	rjmp	.+46     	; 0x10f8 <__udivdi3+0x84a>
    10ca:	40 e0       	ldi	r20, 0x00	; 0
    10cc:	50 e0       	ldi	r21, 0x00	; 0
    10ce:	60 e0       	ldi	r22, 0x00	; 0
    10d0:	70 e0       	ldi	r23, 0x00	; 0
    10d2:	12 c0       	rjmp	.+36     	; 0x10f8 <__udivdi3+0x84a>
    10d4:	40 e0       	ldi	r20, 0x00	; 0
    10d6:	e4 16       	cp	r14, r20
    10d8:	40 e0       	ldi	r20, 0x00	; 0
    10da:	f4 06       	cpc	r15, r20
    10dc:	40 e0       	ldi	r20, 0x00	; 0
    10de:	04 07       	cpc	r16, r20
    10e0:	41 e0       	ldi	r20, 0x01	; 1
    10e2:	14 07       	cpc	r17, r20
    10e4:	28 f0       	brcs	.+10     	; 0x10f0 <__udivdi3+0x842>
    10e6:	48 e1       	ldi	r20, 0x18	; 24
    10e8:	50 e0       	ldi	r21, 0x00	; 0
    10ea:	60 e0       	ldi	r22, 0x00	; 0
    10ec:	70 e0       	ldi	r23, 0x00	; 0
    10ee:	04 c0       	rjmp	.+8      	; 0x10f8 <__udivdi3+0x84a>
    10f0:	40 e1       	ldi	r20, 0x10	; 16
    10f2:	50 e0       	ldi	r21, 0x00	; 0
    10f4:	60 e0       	ldi	r22, 0x00	; 0
    10f6:	70 e0       	ldi	r23, 0x00	; 0
    10f8:	d8 01       	movw	r26, r16
    10fa:	c7 01       	movw	r24, r14
    10fc:	04 2e       	mov	r0, r20
    10fe:	04 c0       	rjmp	.+8      	; 0x1108 <__udivdi3+0x85a>
    1100:	b6 95       	lsr	r27
    1102:	a7 95       	ror	r26
    1104:	97 95       	ror	r25
    1106:	87 95       	ror	r24
    1108:	0a 94       	dec	r0
    110a:	d2 f7       	brpl	.-12     	; 0x1100 <__udivdi3+0x852>
    110c:	87 54       	subi	r24, 0x47	; 71
    110e:	9f 4f       	sbci	r25, 0xFF	; 255
    1110:	dc 01       	movw	r26, r24
    1112:	2c 91       	ld	r18, X
    1114:	30 e2       	ldi	r19, 0x20	; 32
    1116:	a3 2e       	mov	r10, r19
    1118:	b1 2c       	mov	r11, r1
    111a:	c1 2c       	mov	r12, r1
    111c:	d1 2c       	mov	r13, r1
    111e:	d6 01       	movw	r26, r12
    1120:	c5 01       	movw	r24, r10
    1122:	84 1b       	sub	r24, r20
    1124:	95 0b       	sbc	r25, r21
    1126:	a6 0b       	sbc	r26, r22
    1128:	b7 0b       	sbc	r27, r23
    112a:	82 1b       	sub	r24, r18
    112c:	91 09       	sbc	r25, r1
    112e:	a1 09       	sbc	r26, r1
    1130:	b1 09       	sbc	r27, r1
    1132:	00 97       	sbiw	r24, 0x00	; 0
    1134:	a1 05       	cpc	r26, r1
    1136:	b1 05       	cpc	r27, r1
    1138:	89 f4       	brne	.+34     	; 0x115c <__udivdi3+0x8ae>
    113a:	e6 14       	cp	r14, r6
    113c:	f7 04       	cpc	r15, r7
    113e:	08 05       	cpc	r16, r8
    1140:	19 05       	cpc	r17, r9
    1142:	08 f4       	brcc	.+2      	; 0x1146 <__udivdi3+0x898>
    1144:	f2 c1       	rjmp	.+996    	; 0x152a <__udivdi3+0xc7c>
    1146:	6d a4       	ldd	r6, Y+45	; 0x2d
    1148:	7e a4       	ldd	r7, Y+46	; 0x2e
    114a:	8f a4       	ldd	r8, Y+47	; 0x2f
    114c:	98 a8       	ldd	r9, Y+48	; 0x30
    114e:	62 14       	cp	r6, r2
    1150:	73 04       	cpc	r7, r3
    1152:	84 04       	cpc	r8, r4
    1154:	95 04       	cpc	r9, r5
    1156:	08 f0       	brcs	.+2      	; 0x115a <__udivdi3+0x8ac>
    1158:	e8 c1       	rjmp	.+976    	; 0x152a <__udivdi3+0xc7c>
    115a:	f3 c1       	rjmp	.+998    	; 0x1542 <__udivdi3+0xc94>
    115c:	6e 96       	adiw	r28, 0x1e	; 30
    115e:	8f af       	std	Y+63, r24	; 0x3f
    1160:	6e 97       	sbiw	r28, 0x1e	; 30
    1162:	08 2e       	mov	r0, r24
    1164:	04 c0       	rjmp	.+8      	; 0x116e <__udivdi3+0x8c0>
    1166:	ee 0c       	add	r14, r14
    1168:	ff 1c       	adc	r15, r15
    116a:	00 1f       	adc	r16, r16
    116c:	11 1f       	adc	r17, r17
    116e:	0a 94       	dec	r0
    1170:	d2 f7       	brpl	.-12     	; 0x1166 <__udivdi3+0x8b8>
    1172:	6a 2d       	mov	r22, r10
    1174:	68 1b       	sub	r22, r24
    1176:	d2 01       	movw	r26, r4
    1178:	c1 01       	movw	r24, r2
    117a:	06 2e       	mov	r0, r22
    117c:	04 c0       	rjmp	.+8      	; 0x1186 <__udivdi3+0x8d8>
    117e:	b6 95       	lsr	r27
    1180:	a7 95       	ror	r26
    1182:	97 95       	ror	r25
    1184:	87 95       	ror	r24
    1186:	0a 94       	dec	r0
    1188:	d2 f7       	brpl	.-12     	; 0x117e <__udivdi3+0x8d0>
    118a:	5c 01       	movw	r10, r24
    118c:	6d 01       	movw	r12, r26
    118e:	ae 28       	or	r10, r14
    1190:	bf 28       	or	r11, r15
    1192:	c0 2a       	or	r12, r16
    1194:	d1 2a       	or	r13, r17
    1196:	ad a2       	std	Y+37, r10	; 0x25
    1198:	be a2       	std	Y+38, r11	; 0x26
    119a:	cf a2       	std	Y+39, r12	; 0x27
    119c:	d8 a6       	std	Y+40, r13	; 0x28
    119e:	72 01       	movw	r14, r4
    11a0:	61 01       	movw	r12, r2
    11a2:	6e 96       	adiw	r28, 0x1e	; 30
    11a4:	0f ac       	ldd	r0, Y+63	; 0x3f
    11a6:	6e 97       	sbiw	r28, 0x1e	; 30
    11a8:	04 c0       	rjmp	.+8      	; 0x11b2 <__udivdi3+0x904>
    11aa:	cc 0c       	add	r12, r12
    11ac:	dd 1c       	adc	r13, r13
    11ae:	ee 1c       	adc	r14, r14
    11b0:	ff 1c       	adc	r15, r15
    11b2:	0a 94       	dec	r0
    11b4:	d2 f7       	brpl	.-12     	; 0x11aa <__udivdi3+0x8fc>
    11b6:	c9 a2       	std	Y+33, r12	; 0x21
    11b8:	da a2       	std	Y+34, r13	; 0x22
    11ba:	eb a2       	std	Y+35, r14	; 0x23
    11bc:	fc a2       	std	Y+36, r15	; 0x24
    11be:	64 01       	movw	r12, r8
    11c0:	53 01       	movw	r10, r6
    11c2:	06 2e       	mov	r0, r22
    11c4:	04 c0       	rjmp	.+8      	; 0x11ce <__udivdi3+0x920>
    11c6:	d6 94       	lsr	r13
    11c8:	c7 94       	ror	r12
    11ca:	b7 94       	ror	r11
    11cc:	a7 94       	ror	r10
    11ce:	0a 94       	dec	r0
    11d0:	d2 f7       	brpl	.-12     	; 0x11c6 <__udivdi3+0x918>
    11d2:	d4 01       	movw	r26, r8
    11d4:	c3 01       	movw	r24, r6
    11d6:	6e 96       	adiw	r28, 0x1e	; 30
    11d8:	0f ac       	ldd	r0, Y+63	; 0x3f
    11da:	6e 97       	sbiw	r28, 0x1e	; 30
    11dc:	04 c0       	rjmp	.+8      	; 0x11e6 <__udivdi3+0x938>
    11de:	88 0f       	add	r24, r24
    11e0:	99 1f       	adc	r25, r25
    11e2:	aa 1f       	adc	r26, r26
    11e4:	bb 1f       	adc	r27, r27
    11e6:	0a 94       	dec	r0
    11e8:	d2 f7       	brpl	.-12     	; 0x11de <__udivdi3+0x930>
    11ea:	ed a4       	ldd	r14, Y+45	; 0x2d
    11ec:	fe a4       	ldd	r15, Y+46	; 0x2e
    11ee:	0f a5       	ldd	r16, Y+47	; 0x2f
    11f0:	18 a9       	ldd	r17, Y+48	; 0x30
    11f2:	04 c0       	rjmp	.+8      	; 0x11fc <__udivdi3+0x94e>
    11f4:	16 95       	lsr	r17
    11f6:	07 95       	ror	r16
    11f8:	f7 94       	ror	r15
    11fa:	e7 94       	ror	r14
    11fc:	6a 95       	dec	r22
    11fe:	d2 f7       	brpl	.-12     	; 0x11f4 <__udivdi3+0x946>
    1200:	37 01       	movw	r6, r14
    1202:	48 01       	movw	r8, r16
    1204:	68 2a       	or	r6, r24
    1206:	79 2a       	or	r7, r25
    1208:	8a 2a       	or	r8, r26
    120a:	9b 2a       	or	r9, r27
    120c:	6d 8e       	std	Y+29, r6	; 0x1d
    120e:	7e 8e       	std	Y+30, r7	; 0x1e
    1210:	8f 8e       	std	Y+31, r8	; 0x1f
    1212:	98 a2       	std	Y+32, r9	; 0x20
    1214:	ed a0       	ldd	r14, Y+37	; 0x25
    1216:	fe a0       	ldd	r15, Y+38	; 0x26
    1218:	0f a1       	ldd	r16, Y+39	; 0x27
    121a:	18 a5       	ldd	r17, Y+40	; 0x28
    121c:	38 01       	movw	r6, r16
    121e:	88 24       	eor	r8, r8
    1220:	99 24       	eor	r9, r9
    1222:	98 01       	movw	r18, r16
    1224:	87 01       	movw	r16, r14
    1226:	20 70       	andi	r18, 0x00	; 0
    1228:	30 70       	andi	r19, 0x00	; 0
    122a:	65 96       	adiw	r28, 0x15	; 21
    122c:	0c af       	std	Y+60, r16	; 0x3c
    122e:	1d af       	std	Y+61, r17	; 0x3d
    1230:	2e af       	std	Y+62, r18	; 0x3e
    1232:	3f af       	std	Y+63, r19	; 0x3f
    1234:	65 97       	sbiw	r28, 0x15	; 21
    1236:	c6 01       	movw	r24, r12
    1238:	b5 01       	movw	r22, r10
    123a:	a4 01       	movw	r20, r8
    123c:	93 01       	movw	r18, r6
    123e:	0e 94 f4 12 	call	0x25e8	; 0x25e8 <__udivmodsi4>
    1242:	7b 01       	movw	r14, r22
    1244:	8c 01       	movw	r16, r24
    1246:	c6 01       	movw	r24, r12
    1248:	b5 01       	movw	r22, r10
    124a:	a4 01       	movw	r20, r8
    124c:	93 01       	movw	r18, r6
    124e:	0e 94 f4 12 	call	0x25e8	; 0x25e8 <__udivmodsi4>
    1252:	c9 01       	movw	r24, r18
    1254:	da 01       	movw	r26, r20
    1256:	1c 01       	movw	r2, r24
    1258:	2d 01       	movw	r4, r26
    125a:	c2 01       	movw	r24, r4
    125c:	b1 01       	movw	r22, r2
    125e:	65 96       	adiw	r28, 0x15	; 21
    1260:	2c ad       	ldd	r18, Y+60	; 0x3c
    1262:	3d ad       	ldd	r19, Y+61	; 0x3d
    1264:	4e ad       	ldd	r20, Y+62	; 0x3e
    1266:	5f ad       	ldd	r21, Y+63	; 0x3f
    1268:	65 97       	sbiw	r28, 0x15	; 21
    126a:	0e 94 d5 12 	call	0x25aa	; 0x25aa <__mulsi3>
    126e:	9b 01       	movw	r18, r22
    1270:	ac 01       	movw	r20, r24
    1272:	87 01       	movw	r16, r14
    1274:	ff 24       	eor	r15, r15
    1276:	ee 24       	eor	r14, r14
    1278:	ad 8c       	ldd	r10, Y+29	; 0x1d
    127a:	be 8c       	ldd	r11, Y+30	; 0x1e
    127c:	cf 8c       	ldd	r12, Y+31	; 0x1f
    127e:	d8 a0       	ldd	r13, Y+32	; 0x20
    1280:	c6 01       	movw	r24, r12
    1282:	aa 27       	eor	r26, r26
    1284:	bb 27       	eor	r27, r27
    1286:	57 01       	movw	r10, r14
    1288:	68 01       	movw	r12, r16
    128a:	a8 2a       	or	r10, r24
    128c:	b9 2a       	or	r11, r25
    128e:	ca 2a       	or	r12, r26
    1290:	db 2a       	or	r13, r27
    1292:	a2 16       	cp	r10, r18
    1294:	b3 06       	cpc	r11, r19
    1296:	c4 06       	cpc	r12, r20
    1298:	d5 06       	cpc	r13, r21
    129a:	00 f5       	brcc	.+64     	; 0x12dc <__udivdi3+0xa2e>
    129c:	08 94       	sec
    129e:	21 08       	sbc	r2, r1
    12a0:	31 08       	sbc	r3, r1
    12a2:	41 08       	sbc	r4, r1
    12a4:	51 08       	sbc	r5, r1
    12a6:	ed a0       	ldd	r14, Y+37	; 0x25
    12a8:	fe a0       	ldd	r15, Y+38	; 0x26
    12aa:	0f a1       	ldd	r16, Y+39	; 0x27
    12ac:	18 a5       	ldd	r17, Y+40	; 0x28
    12ae:	ae 0c       	add	r10, r14
    12b0:	bf 1c       	adc	r11, r15
    12b2:	c0 1e       	adc	r12, r16
    12b4:	d1 1e       	adc	r13, r17
    12b6:	ae 14       	cp	r10, r14
    12b8:	bf 04       	cpc	r11, r15
    12ba:	c0 06       	cpc	r12, r16
    12bc:	d1 06       	cpc	r13, r17
    12be:	70 f0       	brcs	.+28     	; 0x12dc <__udivdi3+0xa2e>
    12c0:	a2 16       	cp	r10, r18
    12c2:	b3 06       	cpc	r11, r19
    12c4:	c4 06       	cpc	r12, r20
    12c6:	d5 06       	cpc	r13, r21
    12c8:	48 f4       	brcc	.+18     	; 0x12dc <__udivdi3+0xa2e>
    12ca:	08 94       	sec
    12cc:	21 08       	sbc	r2, r1
    12ce:	31 08       	sbc	r3, r1
    12d0:	41 08       	sbc	r4, r1
    12d2:	51 08       	sbc	r5, r1
    12d4:	ae 0c       	add	r10, r14
    12d6:	bf 1c       	adc	r11, r15
    12d8:	c0 1e       	adc	r12, r16
    12da:	d1 1e       	adc	r13, r17
    12dc:	a2 1a       	sub	r10, r18
    12de:	b3 0a       	sbc	r11, r19
    12e0:	c4 0a       	sbc	r12, r20
    12e2:	d5 0a       	sbc	r13, r21
    12e4:	c6 01       	movw	r24, r12
    12e6:	b5 01       	movw	r22, r10
    12e8:	a4 01       	movw	r20, r8
    12ea:	93 01       	movw	r18, r6
    12ec:	0e 94 f4 12 	call	0x25e8	; 0x25e8 <__udivmodsi4>
    12f0:	7b 01       	movw	r14, r22
    12f2:	8c 01       	movw	r16, r24
    12f4:	c6 01       	movw	r24, r12
    12f6:	b5 01       	movw	r22, r10
    12f8:	a4 01       	movw	r20, r8
    12fa:	93 01       	movw	r18, r6
    12fc:	0e 94 f4 12 	call	0x25e8	; 0x25e8 <__udivmodsi4>
    1300:	c9 01       	movw	r24, r18
    1302:	da 01       	movw	r26, r20
    1304:	3c 01       	movw	r6, r24
    1306:	4d 01       	movw	r8, r26
    1308:	c4 01       	movw	r24, r8
    130a:	b3 01       	movw	r22, r6
    130c:	65 96       	adiw	r28, 0x15	; 21
    130e:	2c ad       	ldd	r18, Y+60	; 0x3c
    1310:	3d ad       	ldd	r19, Y+61	; 0x3d
    1312:	4e ad       	ldd	r20, Y+62	; 0x3e
    1314:	5f ad       	ldd	r21, Y+63	; 0x3f
    1316:	65 97       	sbiw	r28, 0x15	; 21
    1318:	0e 94 d5 12 	call	0x25aa	; 0x25aa <__mulsi3>
    131c:	9b 01       	movw	r18, r22
    131e:	ac 01       	movw	r20, r24
    1320:	87 01       	movw	r16, r14
    1322:	ff 24       	eor	r15, r15
    1324:	ee 24       	eor	r14, r14
    1326:	8d 8d       	ldd	r24, Y+29	; 0x1d
    1328:	9e 8d       	ldd	r25, Y+30	; 0x1e
    132a:	af 8d       	ldd	r26, Y+31	; 0x1f
    132c:	b8 a1       	ldd	r27, Y+32	; 0x20
    132e:	a0 70       	andi	r26, 0x00	; 0
    1330:	b0 70       	andi	r27, 0x00	; 0
    1332:	57 01       	movw	r10, r14
    1334:	68 01       	movw	r12, r16
    1336:	a8 2a       	or	r10, r24
    1338:	b9 2a       	or	r11, r25
    133a:	ca 2a       	or	r12, r26
    133c:	db 2a       	or	r13, r27
    133e:	a2 16       	cp	r10, r18
    1340:	b3 06       	cpc	r11, r19
    1342:	c4 06       	cpc	r12, r20
    1344:	d5 06       	cpc	r13, r21
    1346:	00 f5       	brcc	.+64     	; 0x1388 <__udivdi3+0xada>
    1348:	08 94       	sec
    134a:	61 08       	sbc	r6, r1
    134c:	71 08       	sbc	r7, r1
    134e:	81 08       	sbc	r8, r1
    1350:	91 08       	sbc	r9, r1
    1352:	6d a1       	ldd	r22, Y+37	; 0x25
    1354:	7e a1       	ldd	r23, Y+38	; 0x26
    1356:	8f a1       	ldd	r24, Y+39	; 0x27
    1358:	98 a5       	ldd	r25, Y+40	; 0x28
    135a:	a6 0e       	add	r10, r22
    135c:	b7 1e       	adc	r11, r23
    135e:	c8 1e       	adc	r12, r24
    1360:	d9 1e       	adc	r13, r25
    1362:	a6 16       	cp	r10, r22
    1364:	b7 06       	cpc	r11, r23
    1366:	c8 06       	cpc	r12, r24
    1368:	d9 06       	cpc	r13, r25
    136a:	70 f0       	brcs	.+28     	; 0x1388 <__udivdi3+0xada>
    136c:	a2 16       	cp	r10, r18
    136e:	b3 06       	cpc	r11, r19
    1370:	c4 06       	cpc	r12, r20
    1372:	d5 06       	cpc	r13, r21
    1374:	48 f4       	brcc	.+18     	; 0x1388 <__udivdi3+0xada>
    1376:	08 94       	sec
    1378:	61 08       	sbc	r6, r1
    137a:	71 08       	sbc	r7, r1
    137c:	81 08       	sbc	r8, r1
    137e:	91 08       	sbc	r9, r1
    1380:	a6 0e       	add	r10, r22
    1382:	b7 1e       	adc	r11, r23
    1384:	c8 1e       	adc	r12, r24
    1386:	d9 1e       	adc	r13, r25
    1388:	d6 01       	movw	r26, r12
    138a:	c5 01       	movw	r24, r10
    138c:	82 1b       	sub	r24, r18
    138e:	93 0b       	sbc	r25, r19
    1390:	a4 0b       	sbc	r26, r20
    1392:	b5 0b       	sbc	r27, r21
    1394:	89 8f       	std	Y+25, r24	; 0x19
    1396:	9a 8f       	std	Y+26, r25	; 0x1a
    1398:	ab 8f       	std	Y+27, r26	; 0x1b
    139a:	bc 8f       	std	Y+28, r27	; 0x1c
    139c:	d1 01       	movw	r26, r2
    139e:	99 27       	eor	r25, r25
    13a0:	88 27       	eor	r24, r24
    13a2:	64 01       	movw	r12, r8
    13a4:	53 01       	movw	r10, r6
    13a6:	a8 2a       	or	r10, r24
    13a8:	b9 2a       	or	r11, r25
    13aa:	ca 2a       	or	r12, r26
    13ac:	db 2a       	or	r13, r27
    13ae:	a9 aa       	std	Y+49, r10	; 0x31
    13b0:	ba aa       	std	Y+50, r11	; 0x32
    13b2:	cb aa       	std	Y+51, r12	; 0x33
    13b4:	dc aa       	std	Y+52, r13	; 0x34
    13b6:	86 01       	movw	r16, r12
    13b8:	75 01       	movw	r14, r10
    13ba:	2f ef       	ldi	r18, 0xFF	; 255
    13bc:	3f ef       	ldi	r19, 0xFF	; 255
    13be:	40 e0       	ldi	r20, 0x00	; 0
    13c0:	50 e0       	ldi	r21, 0x00	; 0
    13c2:	e2 22       	and	r14, r18
    13c4:	f3 22       	and	r15, r19
    13c6:	04 23       	and	r16, r20
    13c8:	15 23       	and	r17, r21
    13ca:	a6 01       	movw	r20, r12
    13cc:	66 27       	eor	r22, r22
    13ce:	77 27       	eor	r23, r23
    13d0:	6d 96       	adiw	r28, 0x1d	; 29
    13d2:	4c af       	std	Y+60, r20	; 0x3c
    13d4:	5d af       	std	Y+61, r21	; 0x3d
    13d6:	6e af       	std	Y+62, r22	; 0x3e
    13d8:	7f af       	std	Y+63, r23	; 0x3f
    13da:	6d 97       	sbiw	r28, 0x1d	; 29
    13dc:	a9 a0       	ldd	r10, Y+33	; 0x21
    13de:	ba a0       	ldd	r11, Y+34	; 0x22
    13e0:	cb a0       	ldd	r12, Y+35	; 0x23
    13e2:	dc a0       	ldd	r13, Y+36	; 0x24
    13e4:	6f ef       	ldi	r22, 0xFF	; 255
    13e6:	7f ef       	ldi	r23, 0xFF	; 255
    13e8:	80 e0       	ldi	r24, 0x00	; 0
    13ea:	90 e0       	ldi	r25, 0x00	; 0
    13ec:	a6 22       	and	r10, r22
    13ee:	b7 22       	and	r11, r23
    13f0:	c8 22       	and	r12, r24
    13f2:	d9 22       	and	r13, r25
    13f4:	89 a1       	ldd	r24, Y+33	; 0x21
    13f6:	9a a1       	ldd	r25, Y+34	; 0x22
    13f8:	ab a1       	ldd	r26, Y+35	; 0x23
    13fa:	bc a1       	ldd	r27, Y+36	; 0x24
    13fc:	1d 01       	movw	r2, r26
    13fe:	44 24       	eor	r4, r4
    1400:	55 24       	eor	r5, r5
    1402:	c8 01       	movw	r24, r16
    1404:	b7 01       	movw	r22, r14
    1406:	a6 01       	movw	r20, r12
    1408:	95 01       	movw	r18, r10
    140a:	0e 94 d5 12 	call	0x25aa	; 0x25aa <__mulsi3>
    140e:	69 96       	adiw	r28, 0x19	; 25
    1410:	6c af       	std	Y+60, r22	; 0x3c
    1412:	7d af       	std	Y+61, r23	; 0x3d
    1414:	8e af       	std	Y+62, r24	; 0x3e
    1416:	9f af       	std	Y+63, r25	; 0x3f
    1418:	69 97       	sbiw	r28, 0x19	; 25
    141a:	c8 01       	movw	r24, r16
    141c:	b7 01       	movw	r22, r14
    141e:	a2 01       	movw	r20, r4
    1420:	91 01       	movw	r18, r2
    1422:	0e 94 d5 12 	call	0x25aa	; 0x25aa <__mulsi3>
    1426:	3b 01       	movw	r6, r22
    1428:	4c 01       	movw	r8, r24
    142a:	6d 96       	adiw	r28, 0x1d	; 29
    142c:	6c ad       	ldd	r22, Y+60	; 0x3c
    142e:	7d ad       	ldd	r23, Y+61	; 0x3d
    1430:	8e ad       	ldd	r24, Y+62	; 0x3e
    1432:	9f ad       	ldd	r25, Y+63	; 0x3f
    1434:	6d 97       	sbiw	r28, 0x1d	; 29
    1436:	a6 01       	movw	r20, r12
    1438:	95 01       	movw	r18, r10
    143a:	0e 94 d5 12 	call	0x25aa	; 0x25aa <__mulsi3>
    143e:	7b 01       	movw	r14, r22
    1440:	8c 01       	movw	r16, r24
    1442:	6d 96       	adiw	r28, 0x1d	; 29
    1444:	6c ad       	ldd	r22, Y+60	; 0x3c
    1446:	7d ad       	ldd	r23, Y+61	; 0x3d
    1448:	8e ad       	ldd	r24, Y+62	; 0x3e
    144a:	9f ad       	ldd	r25, Y+63	; 0x3f
    144c:	6d 97       	sbiw	r28, 0x1d	; 29
    144e:	a2 01       	movw	r20, r4
    1450:	91 01       	movw	r18, r2
    1452:	0e 94 d5 12 	call	0x25aa	; 0x25aa <__mulsi3>
    1456:	5b 01       	movw	r10, r22
    1458:	6c 01       	movw	r12, r24
    145a:	a8 01       	movw	r20, r16
    145c:	97 01       	movw	r18, r14
    145e:	26 0d       	add	r18, r6
    1460:	37 1d       	adc	r19, r7
    1462:	48 1d       	adc	r20, r8
    1464:	59 1d       	adc	r21, r9
    1466:	69 96       	adiw	r28, 0x19	; 25
    1468:	6c ac       	ldd	r6, Y+60	; 0x3c
    146a:	7d ac       	ldd	r7, Y+61	; 0x3d
    146c:	8e ac       	ldd	r8, Y+62	; 0x3e
    146e:	9f ac       	ldd	r9, Y+63	; 0x3f
    1470:	69 97       	sbiw	r28, 0x19	; 25
    1472:	c4 01       	movw	r24, r8
    1474:	aa 27       	eor	r26, r26
    1476:	bb 27       	eor	r27, r27
    1478:	28 0f       	add	r18, r24
    147a:	39 1f       	adc	r19, r25
    147c:	4a 1f       	adc	r20, r26
    147e:	5b 1f       	adc	r21, r27
    1480:	2e 15       	cp	r18, r14
    1482:	3f 05       	cpc	r19, r15
    1484:	40 07       	cpc	r20, r16
    1486:	51 07       	cpc	r21, r17
    1488:	48 f4       	brcc	.+18     	; 0x149c <__udivdi3+0xbee>
    148a:	e1 2c       	mov	r14, r1
    148c:	f1 2c       	mov	r15, r1
    148e:	61 e0       	ldi	r22, 0x01	; 1
    1490:	06 2f       	mov	r16, r22
    1492:	11 2d       	mov	r17, r1
    1494:	ae 0c       	add	r10, r14
    1496:	bf 1c       	adc	r11, r15
    1498:	c0 1e       	adc	r12, r16
    149a:	d1 1e       	adc	r13, r17
    149c:	ca 01       	movw	r24, r20
    149e:	aa 27       	eor	r26, r26
    14a0:	bb 27       	eor	r27, r27
    14a2:	bc 01       	movw	r22, r24
    14a4:	cd 01       	movw	r24, r26
    14a6:	6a 0d       	add	r22, r10
    14a8:	7b 1d       	adc	r23, r11
    14aa:	8c 1d       	adc	r24, r12
    14ac:	9d 1d       	adc	r25, r13
    14ae:	69 8c       	ldd	r6, Y+25	; 0x19
    14b0:	7a 8c       	ldd	r7, Y+26	; 0x1a
    14b2:	8b 8c       	ldd	r8, Y+27	; 0x1b
    14b4:	9c 8c       	ldd	r9, Y+28	; 0x1c
    14b6:	66 16       	cp	r6, r22
    14b8:	77 06       	cpc	r7, r23
    14ba:	88 06       	cpc	r8, r24
    14bc:	99 06       	cpc	r9, r25
    14be:	40 f1       	brcs	.+80     	; 0x1510 <__udivdi3+0xc62>
    14c0:	66 15       	cp	r22, r6
    14c2:	77 05       	cpc	r23, r7
    14c4:	88 05       	cpc	r24, r8
    14c6:	99 05       	cpc	r25, r9
    14c8:	09 f0       	breq	.+2      	; 0x14cc <__udivdi3+0xc1e>
    14ca:	43 c0       	rjmp	.+134    	; 0x1552 <__udivdi3+0xca4>
    14cc:	d9 01       	movw	r26, r18
    14ce:	99 27       	eor	r25, r25
    14d0:	88 27       	eor	r24, r24
    14d2:	69 96       	adiw	r28, 0x19	; 25
    14d4:	2c ad       	ldd	r18, Y+60	; 0x3c
    14d6:	3d ad       	ldd	r19, Y+61	; 0x3d
    14d8:	4e ad       	ldd	r20, Y+62	; 0x3e
    14da:	5f ad       	ldd	r21, Y+63	; 0x3f
    14dc:	69 97       	sbiw	r28, 0x19	; 25
    14de:	40 70       	andi	r20, 0x00	; 0
    14e0:	50 70       	andi	r21, 0x00	; 0
    14e2:	82 0f       	add	r24, r18
    14e4:	93 1f       	adc	r25, r19
    14e6:	a4 1f       	adc	r26, r20
    14e8:	b5 1f       	adc	r27, r21
    14ea:	2d a5       	ldd	r18, Y+45	; 0x2d
    14ec:	3e a5       	ldd	r19, Y+46	; 0x2e
    14ee:	4f a5       	ldd	r20, Y+47	; 0x2f
    14f0:	58 a9       	ldd	r21, Y+48	; 0x30
    14f2:	6e 96       	adiw	r28, 0x1e	; 30
    14f4:	0f ac       	ldd	r0, Y+63	; 0x3f
    14f6:	6e 97       	sbiw	r28, 0x1e	; 30
    14f8:	04 c0       	rjmp	.+8      	; 0x1502 <__udivdi3+0xc54>
    14fa:	22 0f       	add	r18, r18
    14fc:	33 1f       	adc	r19, r19
    14fe:	44 1f       	adc	r20, r20
    1500:	55 1f       	adc	r21, r21
    1502:	0a 94       	dec	r0
    1504:	d2 f7       	brpl	.-12     	; 0x14fa <__udivdi3+0xc4c>
    1506:	28 17       	cp	r18, r24
    1508:	39 07       	cpc	r19, r25
    150a:	4a 07       	cpc	r20, r26
    150c:	5b 07       	cpc	r21, r27
    150e:	08 f5       	brcc	.+66     	; 0x1552 <__udivdi3+0xca4>
    1510:	09 a9       	ldd	r16, Y+49	; 0x31
    1512:	1a a9       	ldd	r17, Y+50	; 0x32
    1514:	2b a9       	ldd	r18, Y+51	; 0x33
    1516:	3c a9       	ldd	r19, Y+52	; 0x34
    1518:	01 50       	subi	r16, 0x01	; 1
    151a:	10 40       	sbci	r17, 0x00	; 0
    151c:	20 40       	sbci	r18, 0x00	; 0
    151e:	30 40       	sbci	r19, 0x00	; 0
    1520:	09 ab       	std	Y+49, r16	; 0x31
    1522:	1a ab       	std	Y+50, r17	; 0x32
    1524:	2b ab       	std	Y+51, r18	; 0x33
    1526:	3c ab       	std	Y+52, r19	; 0x34
    1528:	14 c0       	rjmp	.+40     	; 0x1552 <__udivdi3+0xca4>
    152a:	66 24       	eor	r6, r6
    152c:	77 24       	eor	r7, r7
    152e:	43 01       	movw	r8, r6
    1530:	21 e0       	ldi	r18, 0x01	; 1
    1532:	30 e0       	ldi	r19, 0x00	; 0
    1534:	40 e0       	ldi	r20, 0x00	; 0
    1536:	50 e0       	ldi	r21, 0x00	; 0
    1538:	29 ab       	std	Y+49, r18	; 0x31
    153a:	3a ab       	std	Y+50, r19	; 0x32
    153c:	4b ab       	std	Y+51, r20	; 0x33
    153e:	5c ab       	std	Y+52, r21	; 0x34
    1540:	0b c0       	rjmp	.+22     	; 0x1558 <__udivdi3+0xcaa>
    1542:	66 24       	eor	r6, r6
    1544:	77 24       	eor	r7, r7
    1546:	43 01       	movw	r8, r6
    1548:	19 aa       	std	Y+49, r1	; 0x31
    154a:	1a aa       	std	Y+50, r1	; 0x32
    154c:	1b aa       	std	Y+51, r1	; 0x33
    154e:	1c aa       	std	Y+52, r1	; 0x34
    1550:	03 c0       	rjmp	.+6      	; 0x1558 <__udivdi3+0xcaa>
    1552:	66 24       	eor	r6, r6
    1554:	77 24       	eor	r7, r7
    1556:	43 01       	movw	r8, r6
    1558:	fe 01       	movw	r30, r28
    155a:	71 96       	adiw	r30, 0x11	; 17
    155c:	88 e0       	ldi	r24, 0x08	; 8
    155e:	df 01       	movw	r26, r30
    1560:	1d 92       	st	X+, r1
    1562:	8a 95       	dec	r24
    1564:	e9 f7       	brne	.-6      	; 0x1560 <__udivdi3+0xcb2>
    1566:	a9 a8       	ldd	r10, Y+49	; 0x31
    1568:	ba a8       	ldd	r11, Y+50	; 0x32
    156a:	cb a8       	ldd	r12, Y+51	; 0x33
    156c:	dc a8       	ldd	r13, Y+52	; 0x34
    156e:	a9 8a       	std	Y+17, r10	; 0x11
    1570:	ba 8a       	std	Y+18, r11	; 0x12
    1572:	cb 8a       	std	Y+19, r12	; 0x13
    1574:	dc 8a       	std	Y+20, r13	; 0x14
    1576:	6d 8a       	std	Y+21, r6	; 0x15
    1578:	7e 8a       	std	Y+22, r7	; 0x16
    157a:	8f 8a       	std	Y+23, r8	; 0x17
    157c:	98 8e       	std	Y+24, r9	; 0x18
    157e:	29 a9       	ldd	r18, Y+49	; 0x31
    1580:	3a 89       	ldd	r19, Y+18	; 0x12
    1582:	4b 89       	ldd	r20, Y+19	; 0x13
    1584:	5c 89       	ldd	r21, Y+20	; 0x14
    1586:	66 2d       	mov	r22, r6
    1588:	7e 89       	ldd	r23, Y+22	; 0x16
    158a:	8f 89       	ldd	r24, Y+23	; 0x17
    158c:	98 8d       	ldd	r25, Y+24	; 0x18
    158e:	c2 5a       	subi	r28, 0xA2	; 162
    1590:	df 4f       	sbci	r29, 0xFF	; 255
    1592:	e2 e1       	ldi	r30, 0x12	; 18
    1594:	0c 94 32 13 	jmp	0x2664	; 0x2664 <__epilogue_restores__>

00001598 <__umoddi3>:
    1598:	ab e5       	ldi	r26, 0x5B	; 91
    159a:	b0 e0       	ldi	r27, 0x00	; 0
    159c:	e2 ed       	ldi	r30, 0xD2	; 210
    159e:	fa e0       	ldi	r31, 0x0A	; 10
    15a0:	0c 94 16 13 	jmp	0x262c	; 0x262c <__prologue_saves__>
    15a4:	a8 e0       	ldi	r26, 0x08	; 8
    15a6:	4e 01       	movw	r8, r28
    15a8:	08 94       	sec
    15aa:	81 1c       	adc	r8, r1
    15ac:	91 1c       	adc	r9, r1
    15ae:	f4 01       	movw	r30, r8
    15b0:	6a 2e       	mov	r6, r26
    15b2:	11 92       	st	Z+, r1
    15b4:	6a 94       	dec	r6
    15b6:	e9 f7       	brne	.-6      	; 0x15b2 <__umoddi3+0x1a>
    15b8:	29 83       	std	Y+1, r18	; 0x01
    15ba:	3a 83       	std	Y+2, r19	; 0x02
    15bc:	4b 83       	std	Y+3, r20	; 0x03
    15be:	5c 83       	std	Y+4, r21	; 0x04
    15c0:	6d 83       	std	Y+5, r22	; 0x05
    15c2:	7e 83       	std	Y+6, r23	; 0x06
    15c4:	8f 83       	std	Y+7, r24	; 0x07
    15c6:	98 87       	std	Y+8, r25	; 0x08
    15c8:	ce 01       	movw	r24, r28
    15ca:	09 96       	adiw	r24, 0x09	; 9
    15cc:	fc 01       	movw	r30, r24
    15ce:	11 92       	st	Z+, r1
    15d0:	aa 95       	dec	r26
    15d2:	e9 f7       	brne	.-6      	; 0x15ce <__umoddi3+0x36>
    15d4:	a9 86       	std	Y+9, r10	; 0x09
    15d6:	ba 86       	std	Y+10, r11	; 0x0a
    15d8:	cb 86       	std	Y+11, r12	; 0x0b
    15da:	dc 86       	std	Y+12, r13	; 0x0c
    15dc:	ed 86       	std	Y+13, r14	; 0x0d
    15de:	fe 86       	std	Y+14, r15	; 0x0e
    15e0:	0f 87       	std	Y+15, r16	; 0x0f
    15e2:	18 8b       	std	Y+16, r17	; 0x10
    15e4:	29 84       	ldd	r2, Y+9	; 0x09
    15e6:	3a 84       	ldd	r3, Y+10	; 0x0a
    15e8:	4b 84       	ldd	r4, Y+11	; 0x0b
    15ea:	5c 84       	ldd	r5, Y+12	; 0x0c
    15ec:	ad 84       	ldd	r10, Y+13	; 0x0d
    15ee:	be 84       	ldd	r11, Y+14	; 0x0e
    15f0:	cf 84       	ldd	r12, Y+15	; 0x0f
    15f2:	d8 88       	ldd	r13, Y+16	; 0x10
    15f4:	29 81       	ldd	r18, Y+1	; 0x01
    15f6:	3a 81       	ldd	r19, Y+2	; 0x02
    15f8:	4b 81       	ldd	r20, Y+3	; 0x03
    15fa:	5c 81       	ldd	r21, Y+4	; 0x04
    15fc:	69 96       	adiw	r28, 0x19	; 25
    15fe:	2f af       	std	Y+63, r18	; 0x3f
    1600:	69 97       	sbiw	r28, 0x19	; 25
    1602:	6a 96       	adiw	r28, 0x1a	; 26
    1604:	3f af       	std	Y+63, r19	; 0x3f
    1606:	6a 97       	sbiw	r28, 0x1a	; 26
    1608:	6b 96       	adiw	r28, 0x1b	; 27
    160a:	4f af       	std	Y+63, r20	; 0x3f
    160c:	6b 97       	sbiw	r28, 0x1b	; 27
    160e:	6c 96       	adiw	r28, 0x1c	; 28
    1610:	5f af       	std	Y+63, r21	; 0x3f
    1612:	6c 97       	sbiw	r28, 0x1c	; 28
    1614:	6c 96       	adiw	r28, 0x1c	; 28
    1616:	6c ac       	ldd	r6, Y+60	; 0x3c
    1618:	7d ac       	ldd	r7, Y+61	; 0x3d
    161a:	8e ac       	ldd	r8, Y+62	; 0x3e
    161c:	9f ac       	ldd	r9, Y+63	; 0x3f
    161e:	6c 97       	sbiw	r28, 0x1c	; 28
    1620:	69 aa       	std	Y+49, r6	; 0x31
    1622:	7a aa       	std	Y+50, r7	; 0x32
    1624:	8b aa       	std	Y+51, r8	; 0x33
    1626:	9c aa       	std	Y+52, r9	; 0x34
    1628:	6d 81       	ldd	r22, Y+5	; 0x05
    162a:	7e 81       	ldd	r23, Y+6	; 0x06
    162c:	8f 81       	ldd	r24, Y+7	; 0x07
    162e:	98 85       	ldd	r25, Y+8	; 0x08
    1630:	3b 01       	movw	r6, r22
    1632:	4c 01       	movw	r8, r24
    1634:	6d aa       	std	Y+53, r6	; 0x35
    1636:	7e aa       	std	Y+54, r7	; 0x36
    1638:	8f aa       	std	Y+55, r8	; 0x37
    163a:	98 ae       	std	Y+56, r9	; 0x38
    163c:	a1 14       	cp	r10, r1
    163e:	b1 04       	cpc	r11, r1
    1640:	c1 04       	cpc	r12, r1
    1642:	d1 04       	cpc	r13, r1
    1644:	09 f0       	breq	.+2      	; 0x1648 <__umoddi3+0xb0>
    1646:	04 c3       	rjmp	.+1544   	; 0x1c50 <__umoddi3+0x6b8>
    1648:	62 14       	cp	r6, r2
    164a:	73 04       	cpc	r7, r3
    164c:	84 04       	cpc	r8, r4
    164e:	95 04       	cpc	r9, r5
    1650:	08 f0       	brcs	.+2      	; 0x1654 <__umoddi3+0xbc>
    1652:	00 c1       	rjmp	.+512    	; 0x1854 <__umoddi3+0x2bc>
    1654:	00 e0       	ldi	r16, 0x00	; 0
    1656:	20 16       	cp	r2, r16
    1658:	00 e0       	ldi	r16, 0x00	; 0
    165a:	30 06       	cpc	r3, r16
    165c:	01 e0       	ldi	r16, 0x01	; 1
    165e:	40 06       	cpc	r4, r16
    1660:	00 e0       	ldi	r16, 0x00	; 0
    1662:	50 06       	cpc	r5, r16
    1664:	88 f4       	brcc	.+34     	; 0x1688 <__umoddi3+0xf0>
    1666:	1f ef       	ldi	r17, 0xFF	; 255
    1668:	21 16       	cp	r2, r17
    166a:	31 04       	cpc	r3, r1
    166c:	41 04       	cpc	r4, r1
    166e:	51 04       	cpc	r5, r1
    1670:	39 f0       	breq	.+14     	; 0x1680 <__umoddi3+0xe8>
    1672:	30 f0       	brcs	.+12     	; 0x1680 <__umoddi3+0xe8>
    1674:	88 e0       	ldi	r24, 0x08	; 8
    1676:	e8 2e       	mov	r14, r24
    1678:	f1 2c       	mov	r15, r1
    167a:	01 2d       	mov	r16, r1
    167c:	11 2d       	mov	r17, r1
    167e:	18 c0       	rjmp	.+48     	; 0x16b0 <__umoddi3+0x118>
    1680:	ee 24       	eor	r14, r14
    1682:	ff 24       	eor	r15, r15
    1684:	87 01       	movw	r16, r14
    1686:	14 c0       	rjmp	.+40     	; 0x16b0 <__umoddi3+0x118>
    1688:	40 e0       	ldi	r20, 0x00	; 0
    168a:	24 16       	cp	r2, r20
    168c:	40 e0       	ldi	r20, 0x00	; 0
    168e:	34 06       	cpc	r3, r20
    1690:	40 e0       	ldi	r20, 0x00	; 0
    1692:	44 06       	cpc	r4, r20
    1694:	41 e0       	ldi	r20, 0x01	; 1
    1696:	54 06       	cpc	r5, r20
    1698:	30 f0       	brcs	.+12     	; 0x16a6 <__umoddi3+0x10e>
    169a:	b8 e1       	ldi	r27, 0x18	; 24
    169c:	eb 2e       	mov	r14, r27
    169e:	f1 2c       	mov	r15, r1
    16a0:	01 2d       	mov	r16, r1
    16a2:	11 2d       	mov	r17, r1
    16a4:	05 c0       	rjmp	.+10     	; 0x16b0 <__umoddi3+0x118>
    16a6:	a0 e1       	ldi	r26, 0x10	; 16
    16a8:	ea 2e       	mov	r14, r26
    16aa:	f1 2c       	mov	r15, r1
    16ac:	01 2d       	mov	r16, r1
    16ae:	11 2d       	mov	r17, r1
    16b0:	d2 01       	movw	r26, r4
    16b2:	c1 01       	movw	r24, r2
    16b4:	0e 2c       	mov	r0, r14
    16b6:	04 c0       	rjmp	.+8      	; 0x16c0 <__umoddi3+0x128>
    16b8:	b6 95       	lsr	r27
    16ba:	a7 95       	ror	r26
    16bc:	97 95       	ror	r25
    16be:	87 95       	ror	r24
    16c0:	0a 94       	dec	r0
    16c2:	d2 f7       	brpl	.-12     	; 0x16b8 <__umoddi3+0x120>
    16c4:	87 54       	subi	r24, 0x47	; 71
    16c6:	9f 4f       	sbci	r25, 0xFF	; 255
    16c8:	dc 01       	movw	r26, r24
    16ca:	2c 91       	ld	r18, X
    16cc:	80 e2       	ldi	r24, 0x20	; 32
    16ce:	90 e0       	ldi	r25, 0x00	; 0
    16d0:	a0 e0       	ldi	r26, 0x00	; 0
    16d2:	b0 e0       	ldi	r27, 0x00	; 0
    16d4:	8e 19       	sub	r24, r14
    16d6:	9f 09       	sbc	r25, r15
    16d8:	a0 0b       	sbc	r26, r16
    16da:	b1 0b       	sbc	r27, r17
    16dc:	5c 01       	movw	r10, r24
    16de:	6d 01       	movw	r12, r26
    16e0:	a2 1a       	sub	r10, r18
    16e2:	b1 08       	sbc	r11, r1
    16e4:	c1 08       	sbc	r12, r1
    16e6:	d1 08       	sbc	r13, r1
    16e8:	a9 ae       	std	Y+57, r10	; 0x39
    16ea:	ba ae       	std	Y+58, r11	; 0x3a
    16ec:	cb ae       	std	Y+59, r12	; 0x3b
    16ee:	dc ae       	std	Y+60, r13	; 0x3c
    16f0:	a1 14       	cp	r10, r1
    16f2:	b1 04       	cpc	r11, r1
    16f4:	c1 04       	cpc	r12, r1
    16f6:	d1 04       	cpc	r13, r1
    16f8:	09 f4       	brne	.+2      	; 0x16fc <__umoddi3+0x164>
    16fa:	3f c0       	rjmp	.+126    	; 0x177a <__umoddi3+0x1e2>
    16fc:	69 ad       	ldd	r22, Y+57	; 0x39
    16fe:	06 2e       	mov	r0, r22
    1700:	04 c0       	rjmp	.+8      	; 0x170a <__umoddi3+0x172>
    1702:	22 0c       	add	r2, r2
    1704:	33 1c       	adc	r3, r3
    1706:	44 1c       	adc	r4, r4
    1708:	55 1c       	adc	r5, r5
    170a:	0a 94       	dec	r0
    170c:	d2 f7       	brpl	.-12     	; 0x1702 <__umoddi3+0x16a>
    170e:	a4 01       	movw	r20, r8
    1710:	93 01       	movw	r18, r6
    1712:	06 2e       	mov	r0, r22
    1714:	04 c0       	rjmp	.+8      	; 0x171e <__umoddi3+0x186>
    1716:	22 0f       	add	r18, r18
    1718:	33 1f       	adc	r19, r19
    171a:	44 1f       	adc	r20, r20
    171c:	55 1f       	adc	r21, r21
    171e:	0a 94       	dec	r0
    1720:	d2 f7       	brpl	.-12     	; 0x1716 <__umoddi3+0x17e>
    1722:	80 e2       	ldi	r24, 0x20	; 32
    1724:	90 e0       	ldi	r25, 0x00	; 0
    1726:	8a 19       	sub	r24, r10
    1728:	9b 09       	sbc	r25, r11
    172a:	6c 96       	adiw	r28, 0x1c	; 28
    172c:	cc ac       	ldd	r12, Y+60	; 0x3c
    172e:	dd ac       	ldd	r13, Y+61	; 0x3d
    1730:	ee ac       	ldd	r14, Y+62	; 0x3e
    1732:	ff ac       	ldd	r15, Y+63	; 0x3f
    1734:	6c 97       	sbiw	r28, 0x1c	; 28
    1736:	04 c0       	rjmp	.+8      	; 0x1740 <__umoddi3+0x1a8>
    1738:	f6 94       	lsr	r15
    173a:	e7 94       	ror	r14
    173c:	d7 94       	ror	r13
    173e:	c7 94       	ror	r12
    1740:	8a 95       	dec	r24
    1742:	d2 f7       	brpl	.-12     	; 0x1738 <__umoddi3+0x1a0>
    1744:	87 01       	movw	r16, r14
    1746:	76 01       	movw	r14, r12
    1748:	e2 2a       	or	r14, r18
    174a:	f3 2a       	or	r15, r19
    174c:	04 2b       	or	r16, r20
    174e:	15 2b       	or	r17, r21
    1750:	ed aa       	std	Y+53, r14	; 0x35
    1752:	fe aa       	std	Y+54, r15	; 0x36
    1754:	0f ab       	std	Y+55, r16	; 0x37
    1756:	18 af       	std	Y+56, r17	; 0x38
    1758:	6c 96       	adiw	r28, 0x1c	; 28
    175a:	8c ad       	ldd	r24, Y+60	; 0x3c
    175c:	9d ad       	ldd	r25, Y+61	; 0x3d
    175e:	ae ad       	ldd	r26, Y+62	; 0x3e
    1760:	bf ad       	ldd	r27, Y+63	; 0x3f
    1762:	6c 97       	sbiw	r28, 0x1c	; 28
    1764:	04 c0       	rjmp	.+8      	; 0x176e <__umoddi3+0x1d6>
    1766:	88 0f       	add	r24, r24
    1768:	99 1f       	adc	r25, r25
    176a:	aa 1f       	adc	r26, r26
    176c:	bb 1f       	adc	r27, r27
    176e:	6a 95       	dec	r22
    1770:	d2 f7       	brpl	.-12     	; 0x1766 <__umoddi3+0x1ce>
    1772:	89 ab       	std	Y+49, r24	; 0x31
    1774:	9a ab       	std	Y+50, r25	; 0x32
    1776:	ab ab       	std	Y+51, r26	; 0x33
    1778:	bc ab       	std	Y+52, r27	; 0x34
    177a:	32 01       	movw	r6, r4
    177c:	88 24       	eor	r8, r8
    177e:	99 24       	eor	r9, r9
    1780:	b2 01       	movw	r22, r4
    1782:	a1 01       	movw	r20, r2
    1784:	60 70       	andi	r22, 0x00	; 0
    1786:	70 70       	andi	r23, 0x00	; 0
    1788:	21 96       	adiw	r28, 0x01	; 1
    178a:	4c af       	std	Y+60, r20	; 0x3c
    178c:	5d af       	std	Y+61, r21	; 0x3d
    178e:	6e af       	std	Y+62, r22	; 0x3e
    1790:	7f af       	std	Y+63, r23	; 0x3f
    1792:	21 97       	sbiw	r28, 0x01	; 1
    1794:	6d a9       	ldd	r22, Y+53	; 0x35
    1796:	7e a9       	ldd	r23, Y+54	; 0x36
    1798:	8f a9       	ldd	r24, Y+55	; 0x37
    179a:	98 ad       	ldd	r25, Y+56	; 0x38
    179c:	a4 01       	movw	r20, r8
    179e:	93 01       	movw	r18, r6
    17a0:	0e 94 f4 12 	call	0x25e8	; 0x25e8 <__udivmodsi4>
    17a4:	7b 01       	movw	r14, r22
    17a6:	8c 01       	movw	r16, r24
    17a8:	6d a9       	ldd	r22, Y+53	; 0x35
    17aa:	7e a9       	ldd	r23, Y+54	; 0x36
    17ac:	8f a9       	ldd	r24, Y+55	; 0x37
    17ae:	98 ad       	ldd	r25, Y+56	; 0x38
    17b0:	a4 01       	movw	r20, r8
    17b2:	93 01       	movw	r18, r6
    17b4:	0e 94 f4 12 	call	0x25e8	; 0x25e8 <__udivmodsi4>
    17b8:	ca 01       	movw	r24, r20
    17ba:	b9 01       	movw	r22, r18
    17bc:	21 96       	adiw	r28, 0x01	; 1
    17be:	2c ad       	ldd	r18, Y+60	; 0x3c
    17c0:	3d ad       	ldd	r19, Y+61	; 0x3d
    17c2:	4e ad       	ldd	r20, Y+62	; 0x3e
    17c4:	5f ad       	ldd	r21, Y+63	; 0x3f
    17c6:	21 97       	sbiw	r28, 0x01	; 1
    17c8:	0e 94 d5 12 	call	0x25aa	; 0x25aa <__mulsi3>
    17cc:	9b 01       	movw	r18, r22
    17ce:	ac 01       	movw	r20, r24
    17d0:	87 01       	movw	r16, r14
    17d2:	ff 24       	eor	r15, r15
    17d4:	ee 24       	eor	r14, r14
    17d6:	a9 a8       	ldd	r10, Y+49	; 0x31
    17d8:	ba a8       	ldd	r11, Y+50	; 0x32
    17da:	cb a8       	ldd	r12, Y+51	; 0x33
    17dc:	dc a8       	ldd	r13, Y+52	; 0x34
    17de:	c6 01       	movw	r24, r12
    17e0:	aa 27       	eor	r26, r26
    17e2:	bb 27       	eor	r27, r27
    17e4:	57 01       	movw	r10, r14
    17e6:	68 01       	movw	r12, r16
    17e8:	a8 2a       	or	r10, r24
    17ea:	b9 2a       	or	r11, r25
    17ec:	ca 2a       	or	r12, r26
    17ee:	db 2a       	or	r13, r27
    17f0:	a2 16       	cp	r10, r18
    17f2:	b3 06       	cpc	r11, r19
    17f4:	c4 06       	cpc	r12, r20
    17f6:	d5 06       	cpc	r13, r21
    17f8:	90 f4       	brcc	.+36     	; 0x181e <__umoddi3+0x286>
    17fa:	a2 0c       	add	r10, r2
    17fc:	b3 1c       	adc	r11, r3
    17fe:	c4 1c       	adc	r12, r4
    1800:	d5 1c       	adc	r13, r5
    1802:	a2 14       	cp	r10, r2
    1804:	b3 04       	cpc	r11, r3
    1806:	c4 04       	cpc	r12, r4
    1808:	d5 04       	cpc	r13, r5
    180a:	48 f0       	brcs	.+18     	; 0x181e <__umoddi3+0x286>
    180c:	a2 16       	cp	r10, r18
    180e:	b3 06       	cpc	r11, r19
    1810:	c4 06       	cpc	r12, r20
    1812:	d5 06       	cpc	r13, r21
    1814:	20 f4       	brcc	.+8      	; 0x181e <__umoddi3+0x286>
    1816:	a2 0c       	add	r10, r2
    1818:	b3 1c       	adc	r11, r3
    181a:	c4 1c       	adc	r12, r4
    181c:	d5 1c       	adc	r13, r5
    181e:	a2 1a       	sub	r10, r18
    1820:	b3 0a       	sbc	r11, r19
    1822:	c4 0a       	sbc	r12, r20
    1824:	d5 0a       	sbc	r13, r21
    1826:	c6 01       	movw	r24, r12
    1828:	b5 01       	movw	r22, r10
    182a:	a4 01       	movw	r20, r8
    182c:	93 01       	movw	r18, r6
    182e:	0e 94 f4 12 	call	0x25e8	; 0x25e8 <__udivmodsi4>
    1832:	7b 01       	movw	r14, r22
    1834:	8c 01       	movw	r16, r24
    1836:	c6 01       	movw	r24, r12
    1838:	b5 01       	movw	r22, r10
    183a:	a4 01       	movw	r20, r8
    183c:	93 01       	movw	r18, r6
    183e:	0e 94 f4 12 	call	0x25e8	; 0x25e8 <__udivmodsi4>
    1842:	ca 01       	movw	r24, r20
    1844:	b9 01       	movw	r22, r18
    1846:	21 96       	adiw	r28, 0x01	; 1
    1848:	2c ad       	ldd	r18, Y+60	; 0x3c
    184a:	3d ad       	ldd	r19, Y+61	; 0x3d
    184c:	4e ad       	ldd	r20, Y+62	; 0x3e
    184e:	5f ad       	ldd	r21, Y+63	; 0x3f
    1850:	21 97       	sbiw	r28, 0x01	; 1
    1852:	ba c1       	rjmp	.+884    	; 0x1bc8 <__umoddi3+0x630>
    1854:	21 14       	cp	r2, r1
    1856:	31 04       	cpc	r3, r1
    1858:	41 04       	cpc	r4, r1
    185a:	51 04       	cpc	r5, r1
    185c:	71 f4       	brne	.+28     	; 0x187a <__umoddi3+0x2e2>
    185e:	61 e0       	ldi	r22, 0x01	; 1
    1860:	70 e0       	ldi	r23, 0x00	; 0
    1862:	80 e0       	ldi	r24, 0x00	; 0
    1864:	90 e0       	ldi	r25, 0x00	; 0
    1866:	20 e0       	ldi	r18, 0x00	; 0
    1868:	30 e0       	ldi	r19, 0x00	; 0
    186a:	40 e0       	ldi	r20, 0x00	; 0
    186c:	50 e0       	ldi	r21, 0x00	; 0
    186e:	0e 94 f4 12 	call	0x25e8	; 0x25e8 <__udivmodsi4>
    1872:	c9 01       	movw	r24, r18
    1874:	da 01       	movw	r26, r20
    1876:	1c 01       	movw	r2, r24
    1878:	2d 01       	movw	r4, r26
    187a:	00 e0       	ldi	r16, 0x00	; 0
    187c:	20 16       	cp	r2, r16
    187e:	00 e0       	ldi	r16, 0x00	; 0
    1880:	30 06       	cpc	r3, r16
    1882:	01 e0       	ldi	r16, 0x01	; 1
    1884:	40 06       	cpc	r4, r16
    1886:	00 e0       	ldi	r16, 0x00	; 0
    1888:	50 06       	cpc	r5, r16
    188a:	88 f4       	brcc	.+34     	; 0x18ae <__umoddi3+0x316>
    188c:	1f ef       	ldi	r17, 0xFF	; 255
    188e:	21 16       	cp	r2, r17
    1890:	31 04       	cpc	r3, r1
    1892:	41 04       	cpc	r4, r1
    1894:	51 04       	cpc	r5, r1
    1896:	39 f0       	breq	.+14     	; 0x18a6 <__umoddi3+0x30e>
    1898:	30 f0       	brcs	.+12     	; 0x18a6 <__umoddi3+0x30e>
    189a:	68 e0       	ldi	r22, 0x08	; 8
    189c:	e6 2e       	mov	r14, r22
    189e:	f1 2c       	mov	r15, r1
    18a0:	01 2d       	mov	r16, r1
    18a2:	11 2d       	mov	r17, r1
    18a4:	18 c0       	rjmp	.+48     	; 0x18d6 <__umoddi3+0x33e>
    18a6:	ee 24       	eor	r14, r14
    18a8:	ff 24       	eor	r15, r15
    18aa:	87 01       	movw	r16, r14
    18ac:	14 c0       	rjmp	.+40     	; 0x18d6 <__umoddi3+0x33e>
    18ae:	40 e0       	ldi	r20, 0x00	; 0
    18b0:	24 16       	cp	r2, r20
    18b2:	40 e0       	ldi	r20, 0x00	; 0
    18b4:	34 06       	cpc	r3, r20
    18b6:	40 e0       	ldi	r20, 0x00	; 0
    18b8:	44 06       	cpc	r4, r20
    18ba:	41 e0       	ldi	r20, 0x01	; 1
    18bc:	54 06       	cpc	r5, r20
    18be:	30 f0       	brcs	.+12     	; 0x18cc <__umoddi3+0x334>
    18c0:	58 e1       	ldi	r21, 0x18	; 24
    18c2:	e5 2e       	mov	r14, r21
    18c4:	f1 2c       	mov	r15, r1
    18c6:	01 2d       	mov	r16, r1
    18c8:	11 2d       	mov	r17, r1
    18ca:	05 c0       	rjmp	.+10     	; 0x18d6 <__umoddi3+0x33e>
    18cc:	40 e1       	ldi	r20, 0x10	; 16
    18ce:	e4 2e       	mov	r14, r20
    18d0:	f1 2c       	mov	r15, r1
    18d2:	01 2d       	mov	r16, r1
    18d4:	11 2d       	mov	r17, r1
    18d6:	d2 01       	movw	r26, r4
    18d8:	c1 01       	movw	r24, r2
    18da:	0e 2c       	mov	r0, r14
    18dc:	04 c0       	rjmp	.+8      	; 0x18e6 <__umoddi3+0x34e>
    18de:	b6 95       	lsr	r27
    18e0:	a7 95       	ror	r26
    18e2:	97 95       	ror	r25
    18e4:	87 95       	ror	r24
    18e6:	0a 94       	dec	r0
    18e8:	d2 f7       	brpl	.-12     	; 0x18de <__umoddi3+0x346>
    18ea:	87 54       	subi	r24, 0x47	; 71
    18ec:	9f 4f       	sbci	r25, 0xFF	; 255
    18ee:	dc 01       	movw	r26, r24
    18f0:	2c 91       	ld	r18, X
    18f2:	30 e2       	ldi	r19, 0x20	; 32
    18f4:	a3 2e       	mov	r10, r19
    18f6:	b1 2c       	mov	r11, r1
    18f8:	c1 2c       	mov	r12, r1
    18fa:	d1 2c       	mov	r13, r1
    18fc:	d6 01       	movw	r26, r12
    18fe:	c5 01       	movw	r24, r10
    1900:	8e 19       	sub	r24, r14
    1902:	9f 09       	sbc	r25, r15
    1904:	a0 0b       	sbc	r26, r16
    1906:	b1 0b       	sbc	r27, r17
    1908:	7c 01       	movw	r14, r24
    190a:	8d 01       	movw	r16, r26
    190c:	e2 1a       	sub	r14, r18
    190e:	f1 08       	sbc	r15, r1
    1910:	01 09       	sbc	r16, r1
    1912:	11 09       	sbc	r17, r1
    1914:	e9 ae       	std	Y+57, r14	; 0x39
    1916:	fa ae       	std	Y+58, r15	; 0x3a
    1918:	0b af       	std	Y+59, r16	; 0x3b
    191a:	1c af       	std	Y+60, r17	; 0x3c
    191c:	e1 14       	cp	r14, r1
    191e:	f1 04       	cpc	r15, r1
    1920:	01 05       	cpc	r16, r1
    1922:	11 05       	cpc	r17, r1
    1924:	39 f4       	brne	.+14     	; 0x1934 <__umoddi3+0x39c>
    1926:	64 01       	movw	r12, r8
    1928:	53 01       	movw	r10, r6
    192a:	a2 18       	sub	r10, r2
    192c:	b3 08       	sbc	r11, r3
    192e:	c4 08       	sbc	r12, r4
    1930:	d5 08       	sbc	r13, r5
    1932:	e2 c0       	rjmp	.+452    	; 0x1af8 <__umoddi3+0x560>
    1934:	f9 ac       	ldd	r15, Y+57	; 0x39
    1936:	68 96       	adiw	r28, 0x18	; 24
    1938:	ff ae       	std	Y+63, r15	; 0x3f
    193a:	68 97       	sbiw	r28, 0x18	; 24
    193c:	0f 2c       	mov	r0, r15
    193e:	04 c0       	rjmp	.+8      	; 0x1948 <__umoddi3+0x3b0>
    1940:	22 0c       	add	r2, r2
    1942:	33 1c       	adc	r3, r3
    1944:	44 1c       	adc	r4, r4
    1946:	55 1c       	adc	r5, r5
    1948:	0a 94       	dec	r0
    194a:	d2 f7       	brpl	.-12     	; 0x1940 <__umoddi3+0x3a8>
    194c:	8a 2d       	mov	r24, r10
    194e:	8f 19       	sub	r24, r15
    1950:	64 01       	movw	r12, r8
    1952:	53 01       	movw	r10, r6
    1954:	08 2e       	mov	r0, r24
    1956:	04 c0       	rjmp	.+8      	; 0x1960 <__umoddi3+0x3c8>
    1958:	d6 94       	lsr	r13
    195a:	c7 94       	ror	r12
    195c:	b7 94       	ror	r11
    195e:	a7 94       	ror	r10
    1960:	0a 94       	dec	r0
    1962:	d2 f7       	brpl	.-12     	; 0x1958 <__umoddi3+0x3c0>
    1964:	a4 01       	movw	r20, r8
    1966:	93 01       	movw	r18, r6
    1968:	04 c0       	rjmp	.+8      	; 0x1972 <__umoddi3+0x3da>
    196a:	22 0f       	add	r18, r18
    196c:	33 1f       	adc	r19, r19
    196e:	44 1f       	adc	r20, r20
    1970:	55 1f       	adc	r21, r21
    1972:	fa 94       	dec	r15
    1974:	d2 f7       	brpl	.-12     	; 0x196a <__umoddi3+0x3d2>
    1976:	6c 96       	adiw	r28, 0x1c	; 28
    1978:	6c ac       	ldd	r6, Y+60	; 0x3c
    197a:	7d ac       	ldd	r7, Y+61	; 0x3d
    197c:	8e ac       	ldd	r8, Y+62	; 0x3e
    197e:	9f ac       	ldd	r9, Y+63	; 0x3f
    1980:	6c 97       	sbiw	r28, 0x1c	; 28
    1982:	04 c0       	rjmp	.+8      	; 0x198c <__umoddi3+0x3f4>
    1984:	96 94       	lsr	r9
    1986:	87 94       	ror	r8
    1988:	77 94       	ror	r7
    198a:	67 94       	ror	r6
    198c:	8a 95       	dec	r24
    198e:	d2 f7       	brpl	.-12     	; 0x1984 <__umoddi3+0x3ec>
    1990:	84 01       	movw	r16, r8
    1992:	73 01       	movw	r14, r6
    1994:	e2 2a       	or	r14, r18
    1996:	f3 2a       	or	r15, r19
    1998:	04 2b       	or	r16, r20
    199a:	15 2b       	or	r17, r21
    199c:	ed a6       	std	Y+45, r14	; 0x2d
    199e:	fe a6       	std	Y+46, r15	; 0x2e
    19a0:	0f a7       	std	Y+47, r16	; 0x2f
    19a2:	18 ab       	std	Y+48, r17	; 0x30
    19a4:	32 01       	movw	r6, r4
    19a6:	88 24       	eor	r8, r8
    19a8:	99 24       	eor	r9, r9
    19aa:	b2 01       	movw	r22, r4
    19ac:	a1 01       	movw	r20, r2
    19ae:	60 70       	andi	r22, 0x00	; 0
    19b0:	70 70       	andi	r23, 0x00	; 0
    19b2:	25 96       	adiw	r28, 0x05	; 5
    19b4:	4c af       	std	Y+60, r20	; 0x3c
    19b6:	5d af       	std	Y+61, r21	; 0x3d
    19b8:	6e af       	std	Y+62, r22	; 0x3e
    19ba:	7f af       	std	Y+63, r23	; 0x3f
    19bc:	25 97       	sbiw	r28, 0x05	; 5
    19be:	c6 01       	movw	r24, r12
    19c0:	b5 01       	movw	r22, r10
    19c2:	a4 01       	movw	r20, r8
    19c4:	93 01       	movw	r18, r6
    19c6:	0e 94 f4 12 	call	0x25e8	; 0x25e8 <__udivmodsi4>
    19ca:	7b 01       	movw	r14, r22
    19cc:	8c 01       	movw	r16, r24
    19ce:	c6 01       	movw	r24, r12
    19d0:	b5 01       	movw	r22, r10
    19d2:	a4 01       	movw	r20, r8
    19d4:	93 01       	movw	r18, r6
    19d6:	0e 94 f4 12 	call	0x25e8	; 0x25e8 <__udivmodsi4>
    19da:	ca 01       	movw	r24, r20
    19dc:	b9 01       	movw	r22, r18
    19de:	25 96       	adiw	r28, 0x05	; 5
    19e0:	2c ad       	ldd	r18, Y+60	; 0x3c
    19e2:	3d ad       	ldd	r19, Y+61	; 0x3d
    19e4:	4e ad       	ldd	r20, Y+62	; 0x3e
    19e6:	5f ad       	ldd	r21, Y+63	; 0x3f
    19e8:	25 97       	sbiw	r28, 0x05	; 5
    19ea:	0e 94 d5 12 	call	0x25aa	; 0x25aa <__mulsi3>
    19ee:	9b 01       	movw	r18, r22
    19f0:	ac 01       	movw	r20, r24
    19f2:	87 01       	movw	r16, r14
    19f4:	ff 24       	eor	r15, r15
    19f6:	ee 24       	eor	r14, r14
    19f8:	ad a4       	ldd	r10, Y+45	; 0x2d
    19fa:	be a4       	ldd	r11, Y+46	; 0x2e
    19fc:	cf a4       	ldd	r12, Y+47	; 0x2f
    19fe:	d8 a8       	ldd	r13, Y+48	; 0x30
    1a00:	c6 01       	movw	r24, r12
    1a02:	aa 27       	eor	r26, r26
    1a04:	bb 27       	eor	r27, r27
    1a06:	5c 01       	movw	r10, r24
    1a08:	6d 01       	movw	r12, r26
    1a0a:	ae 28       	or	r10, r14
    1a0c:	bf 28       	or	r11, r15
    1a0e:	c0 2a       	or	r12, r16
    1a10:	d1 2a       	or	r13, r17
    1a12:	a2 16       	cp	r10, r18
    1a14:	b3 06       	cpc	r11, r19
    1a16:	c4 06       	cpc	r12, r20
    1a18:	d5 06       	cpc	r13, r21
    1a1a:	90 f4       	brcc	.+36     	; 0x1a40 <__umoddi3+0x4a8>
    1a1c:	a2 0c       	add	r10, r2
    1a1e:	b3 1c       	adc	r11, r3
    1a20:	c4 1c       	adc	r12, r4
    1a22:	d5 1c       	adc	r13, r5
    1a24:	a2 14       	cp	r10, r2
    1a26:	b3 04       	cpc	r11, r3
    1a28:	c4 04       	cpc	r12, r4
    1a2a:	d5 04       	cpc	r13, r5
    1a2c:	48 f0       	brcs	.+18     	; 0x1a40 <__umoddi3+0x4a8>
    1a2e:	a2 16       	cp	r10, r18
    1a30:	b3 06       	cpc	r11, r19
    1a32:	c4 06       	cpc	r12, r20
    1a34:	d5 06       	cpc	r13, r21
    1a36:	20 f4       	brcc	.+8      	; 0x1a40 <__umoddi3+0x4a8>
    1a38:	a2 0c       	add	r10, r2
    1a3a:	b3 1c       	adc	r11, r3
    1a3c:	c4 1c       	adc	r12, r4
    1a3e:	d5 1c       	adc	r13, r5
    1a40:	a2 1a       	sub	r10, r18
    1a42:	b3 0a       	sbc	r11, r19
    1a44:	c4 0a       	sbc	r12, r20
    1a46:	d5 0a       	sbc	r13, r21
    1a48:	c6 01       	movw	r24, r12
    1a4a:	b5 01       	movw	r22, r10
    1a4c:	a4 01       	movw	r20, r8
    1a4e:	93 01       	movw	r18, r6
    1a50:	0e 94 f4 12 	call	0x25e8	; 0x25e8 <__udivmodsi4>
    1a54:	7b 01       	movw	r14, r22
    1a56:	8c 01       	movw	r16, r24
    1a58:	c6 01       	movw	r24, r12
    1a5a:	b5 01       	movw	r22, r10
    1a5c:	a4 01       	movw	r20, r8
    1a5e:	93 01       	movw	r18, r6
    1a60:	0e 94 f4 12 	call	0x25e8	; 0x25e8 <__udivmodsi4>
    1a64:	ca 01       	movw	r24, r20
    1a66:	b9 01       	movw	r22, r18
    1a68:	25 96       	adiw	r28, 0x05	; 5
    1a6a:	2c ad       	ldd	r18, Y+60	; 0x3c
    1a6c:	3d ad       	ldd	r19, Y+61	; 0x3d
    1a6e:	4e ad       	ldd	r20, Y+62	; 0x3e
    1a70:	5f ad       	ldd	r21, Y+63	; 0x3f
    1a72:	25 97       	sbiw	r28, 0x05	; 5
    1a74:	0e 94 d5 12 	call	0x25aa	; 0x25aa <__mulsi3>
    1a78:	9b 01       	movw	r18, r22
    1a7a:	ac 01       	movw	r20, r24
    1a7c:	87 01       	movw	r16, r14
    1a7e:	ff 24       	eor	r15, r15
    1a80:	ee 24       	eor	r14, r14
    1a82:	8d a5       	ldd	r24, Y+45	; 0x2d
    1a84:	9e a5       	ldd	r25, Y+46	; 0x2e
    1a86:	af a5       	ldd	r26, Y+47	; 0x2f
    1a88:	b8 a9       	ldd	r27, Y+48	; 0x30
    1a8a:	a0 70       	andi	r26, 0x00	; 0
    1a8c:	b0 70       	andi	r27, 0x00	; 0
    1a8e:	57 01       	movw	r10, r14
    1a90:	68 01       	movw	r12, r16
    1a92:	a8 2a       	or	r10, r24
    1a94:	b9 2a       	or	r11, r25
    1a96:	ca 2a       	or	r12, r26
    1a98:	db 2a       	or	r13, r27
    1a9a:	a2 16       	cp	r10, r18
    1a9c:	b3 06       	cpc	r11, r19
    1a9e:	c4 06       	cpc	r12, r20
    1aa0:	d5 06       	cpc	r13, r21
    1aa2:	90 f4       	brcc	.+36     	; 0x1ac8 <__umoddi3+0x530>
    1aa4:	a2 0c       	add	r10, r2
    1aa6:	b3 1c       	adc	r11, r3
    1aa8:	c4 1c       	adc	r12, r4
    1aaa:	d5 1c       	adc	r13, r5
    1aac:	a2 14       	cp	r10, r2
    1aae:	b3 04       	cpc	r11, r3
    1ab0:	c4 04       	cpc	r12, r4
    1ab2:	d5 04       	cpc	r13, r5
    1ab4:	48 f0       	brcs	.+18     	; 0x1ac8 <__umoddi3+0x530>
    1ab6:	a2 16       	cp	r10, r18
    1ab8:	b3 06       	cpc	r11, r19
    1aba:	c4 06       	cpc	r12, r20
    1abc:	d5 06       	cpc	r13, r21
    1abe:	20 f4       	brcc	.+8      	; 0x1ac8 <__umoddi3+0x530>
    1ac0:	a2 0c       	add	r10, r2
    1ac2:	b3 1c       	adc	r11, r3
    1ac4:	c4 1c       	adc	r12, r4
    1ac6:	d5 1c       	adc	r13, r5
    1ac8:	6c 96       	adiw	r28, 0x1c	; 28
    1aca:	ec ac       	ldd	r14, Y+60	; 0x3c
    1acc:	fd ac       	ldd	r15, Y+61	; 0x3d
    1ace:	0e ad       	ldd	r16, Y+62	; 0x3e
    1ad0:	1f ad       	ldd	r17, Y+63	; 0x3f
    1ad2:	6c 97       	sbiw	r28, 0x1c	; 28
    1ad4:	68 96       	adiw	r28, 0x18	; 24
    1ad6:	0f ac       	ldd	r0, Y+63	; 0x3f
    1ad8:	68 97       	sbiw	r28, 0x18	; 24
    1ada:	04 c0       	rjmp	.+8      	; 0x1ae4 <__umoddi3+0x54c>
    1adc:	ee 0c       	add	r14, r14
    1ade:	ff 1c       	adc	r15, r15
    1ae0:	00 1f       	adc	r16, r16
    1ae2:	11 1f       	adc	r17, r17
    1ae4:	0a 94       	dec	r0
    1ae6:	d2 f7       	brpl	.-12     	; 0x1adc <__umoddi3+0x544>
    1ae8:	e9 aa       	std	Y+49, r14	; 0x31
    1aea:	fa aa       	std	Y+50, r15	; 0x32
    1aec:	0b ab       	std	Y+51, r16	; 0x33
    1aee:	1c ab       	std	Y+52, r17	; 0x34
    1af0:	a2 1a       	sub	r10, r18
    1af2:	b3 0a       	sbc	r11, r19
    1af4:	c4 0a       	sbc	r12, r20
    1af6:	d5 0a       	sbc	r13, r21
    1af8:	32 01       	movw	r6, r4
    1afa:	88 24       	eor	r8, r8
    1afc:	99 24       	eor	r9, r9
    1afe:	b2 01       	movw	r22, r4
    1b00:	a1 01       	movw	r20, r2
    1b02:	60 70       	andi	r22, 0x00	; 0
    1b04:	70 70       	andi	r23, 0x00	; 0
    1b06:	29 96       	adiw	r28, 0x09	; 9
    1b08:	4c af       	std	Y+60, r20	; 0x3c
    1b0a:	5d af       	std	Y+61, r21	; 0x3d
    1b0c:	6e af       	std	Y+62, r22	; 0x3e
    1b0e:	7f af       	std	Y+63, r23	; 0x3f
    1b10:	29 97       	sbiw	r28, 0x09	; 9
    1b12:	c6 01       	movw	r24, r12
    1b14:	b5 01       	movw	r22, r10
    1b16:	a4 01       	movw	r20, r8
    1b18:	93 01       	movw	r18, r6
    1b1a:	0e 94 f4 12 	call	0x25e8	; 0x25e8 <__udivmodsi4>
    1b1e:	7b 01       	movw	r14, r22
    1b20:	8c 01       	movw	r16, r24
    1b22:	c6 01       	movw	r24, r12
    1b24:	b5 01       	movw	r22, r10
    1b26:	a4 01       	movw	r20, r8
    1b28:	93 01       	movw	r18, r6
    1b2a:	0e 94 f4 12 	call	0x25e8	; 0x25e8 <__udivmodsi4>
    1b2e:	ca 01       	movw	r24, r20
    1b30:	b9 01       	movw	r22, r18
    1b32:	29 96       	adiw	r28, 0x09	; 9
    1b34:	2c ad       	ldd	r18, Y+60	; 0x3c
    1b36:	3d ad       	ldd	r19, Y+61	; 0x3d
    1b38:	4e ad       	ldd	r20, Y+62	; 0x3e
    1b3a:	5f ad       	ldd	r21, Y+63	; 0x3f
    1b3c:	29 97       	sbiw	r28, 0x09	; 9
    1b3e:	0e 94 d5 12 	call	0x25aa	; 0x25aa <__mulsi3>
    1b42:	9b 01       	movw	r18, r22
    1b44:	ac 01       	movw	r20, r24
    1b46:	87 01       	movw	r16, r14
    1b48:	ff 24       	eor	r15, r15
    1b4a:	ee 24       	eor	r14, r14
    1b4c:	a9 a8       	ldd	r10, Y+49	; 0x31
    1b4e:	ba a8       	ldd	r11, Y+50	; 0x32
    1b50:	cb a8       	ldd	r12, Y+51	; 0x33
    1b52:	dc a8       	ldd	r13, Y+52	; 0x34
    1b54:	c6 01       	movw	r24, r12
    1b56:	aa 27       	eor	r26, r26
    1b58:	bb 27       	eor	r27, r27
    1b5a:	57 01       	movw	r10, r14
    1b5c:	68 01       	movw	r12, r16
    1b5e:	a8 2a       	or	r10, r24
    1b60:	b9 2a       	or	r11, r25
    1b62:	ca 2a       	or	r12, r26
    1b64:	db 2a       	or	r13, r27
    1b66:	a2 16       	cp	r10, r18
    1b68:	b3 06       	cpc	r11, r19
    1b6a:	c4 06       	cpc	r12, r20
    1b6c:	d5 06       	cpc	r13, r21
    1b6e:	90 f4       	brcc	.+36     	; 0x1b94 <__umoddi3+0x5fc>
    1b70:	a2 0c       	add	r10, r2
    1b72:	b3 1c       	adc	r11, r3
    1b74:	c4 1c       	adc	r12, r4
    1b76:	d5 1c       	adc	r13, r5
    1b78:	a2 14       	cp	r10, r2
    1b7a:	b3 04       	cpc	r11, r3
    1b7c:	c4 04       	cpc	r12, r4
    1b7e:	d5 04       	cpc	r13, r5
    1b80:	48 f0       	brcs	.+18     	; 0x1b94 <__umoddi3+0x5fc>
    1b82:	a2 16       	cp	r10, r18
    1b84:	b3 06       	cpc	r11, r19
    1b86:	c4 06       	cpc	r12, r20
    1b88:	d5 06       	cpc	r13, r21
    1b8a:	20 f4       	brcc	.+8      	; 0x1b94 <__umoddi3+0x5fc>
    1b8c:	a2 0c       	add	r10, r2
    1b8e:	b3 1c       	adc	r11, r3
    1b90:	c4 1c       	adc	r12, r4
    1b92:	d5 1c       	adc	r13, r5
    1b94:	a2 1a       	sub	r10, r18
    1b96:	b3 0a       	sbc	r11, r19
    1b98:	c4 0a       	sbc	r12, r20
    1b9a:	d5 0a       	sbc	r13, r21
    1b9c:	c6 01       	movw	r24, r12
    1b9e:	b5 01       	movw	r22, r10
    1ba0:	a4 01       	movw	r20, r8
    1ba2:	93 01       	movw	r18, r6
    1ba4:	0e 94 f4 12 	call	0x25e8	; 0x25e8 <__udivmodsi4>
    1ba8:	7b 01       	movw	r14, r22
    1baa:	8c 01       	movw	r16, r24
    1bac:	c6 01       	movw	r24, r12
    1bae:	b5 01       	movw	r22, r10
    1bb0:	a4 01       	movw	r20, r8
    1bb2:	93 01       	movw	r18, r6
    1bb4:	0e 94 f4 12 	call	0x25e8	; 0x25e8 <__udivmodsi4>
    1bb8:	ca 01       	movw	r24, r20
    1bba:	b9 01       	movw	r22, r18
    1bbc:	29 96       	adiw	r28, 0x09	; 9
    1bbe:	2c ad       	ldd	r18, Y+60	; 0x3c
    1bc0:	3d ad       	ldd	r19, Y+61	; 0x3d
    1bc2:	4e ad       	ldd	r20, Y+62	; 0x3e
    1bc4:	5f ad       	ldd	r21, Y+63	; 0x3f
    1bc6:	29 97       	sbiw	r28, 0x09	; 9
    1bc8:	0e 94 d5 12 	call	0x25aa	; 0x25aa <__mulsi3>
    1bcc:	9b 01       	movw	r18, r22
    1bce:	ac 01       	movw	r20, r24
    1bd0:	87 01       	movw	r16, r14
    1bd2:	ff 24       	eor	r15, r15
    1bd4:	ee 24       	eor	r14, r14
    1bd6:	89 a9       	ldd	r24, Y+49	; 0x31
    1bd8:	9a a9       	ldd	r25, Y+50	; 0x32
    1bda:	ab a9       	ldd	r26, Y+51	; 0x33
    1bdc:	bc a9       	ldd	r27, Y+52	; 0x34
    1bde:	a0 70       	andi	r26, 0x00	; 0
    1be0:	b0 70       	andi	r27, 0x00	; 0
    1be2:	e8 2a       	or	r14, r24
    1be4:	f9 2a       	or	r15, r25
    1be6:	0a 2b       	or	r16, r26
    1be8:	1b 2b       	or	r17, r27
    1bea:	e2 16       	cp	r14, r18
    1bec:	f3 06       	cpc	r15, r19
    1bee:	04 07       	cpc	r16, r20
    1bf0:	15 07       	cpc	r17, r21
    1bf2:	90 f4       	brcc	.+36     	; 0x1c18 <__umoddi3+0x680>
    1bf4:	e2 0c       	add	r14, r2
    1bf6:	f3 1c       	adc	r15, r3
    1bf8:	04 1d       	adc	r16, r4
    1bfa:	15 1d       	adc	r17, r5
    1bfc:	e2 14       	cp	r14, r2
    1bfe:	f3 04       	cpc	r15, r3
    1c00:	04 05       	cpc	r16, r4
    1c02:	15 05       	cpc	r17, r5
    1c04:	48 f0       	brcs	.+18     	; 0x1c18 <__umoddi3+0x680>
    1c06:	e2 16       	cp	r14, r18
    1c08:	f3 06       	cpc	r15, r19
    1c0a:	04 07       	cpc	r16, r20
    1c0c:	15 07       	cpc	r17, r21
    1c0e:	20 f4       	brcc	.+8      	; 0x1c18 <__umoddi3+0x680>
    1c10:	e2 0c       	add	r14, r2
    1c12:	f3 1c       	adc	r15, r3
    1c14:	04 1d       	adc	r16, r4
    1c16:	15 1d       	adc	r17, r5
    1c18:	e2 1a       	sub	r14, r18
    1c1a:	f3 0a       	sbc	r15, r19
    1c1c:	04 0b       	sbc	r16, r20
    1c1e:	15 0b       	sbc	r17, r21
    1c20:	d8 01       	movw	r26, r16
    1c22:	c7 01       	movw	r24, r14
    1c24:	09 ac       	ldd	r0, Y+57	; 0x39
    1c26:	04 c0       	rjmp	.+8      	; 0x1c30 <__umoddi3+0x698>
    1c28:	b6 95       	lsr	r27
    1c2a:	a7 95       	ror	r26
    1c2c:	97 95       	ror	r25
    1c2e:	87 95       	ror	r24
    1c30:	0a 94       	dec	r0
    1c32:	d2 f7       	brpl	.-12     	; 0x1c28 <__umoddi3+0x690>
    1c34:	89 8b       	std	Y+17, r24	; 0x11
    1c36:	9a 8b       	std	Y+18, r25	; 0x12
    1c38:	ab 8b       	std	Y+19, r26	; 0x13
    1c3a:	bc 8b       	std	Y+20, r27	; 0x14
    1c3c:	1d 8a       	std	Y+21, r1	; 0x15
    1c3e:	1e 8a       	std	Y+22, r1	; 0x16
    1c40:	1f 8a       	std	Y+23, r1	; 0x17
    1c42:	18 8e       	std	Y+24, r1	; 0x18
    1c44:	28 2f       	mov	r18, r24
    1c46:	3a 89       	ldd	r19, Y+18	; 0x12
    1c48:	4b 89       	ldd	r20, Y+19	; 0x13
    1c4a:	5c 89       	ldd	r21, Y+20	; 0x14
    1c4c:	6d 89       	ldd	r22, Y+21	; 0x15
    1c4e:	0c c3       	rjmp	.+1560   	; 0x2268 <__umoddi3+0xcd0>
    1c50:	6a 14       	cp	r6, r10
    1c52:	7b 04       	cpc	r7, r11
    1c54:	8c 04       	cpc	r8, r12
    1c56:	9d 04       	cpc	r9, r13
    1c58:	08 f4       	brcc	.+2      	; 0x1c5c <__umoddi3+0x6c4>
    1c5a:	09 c3       	rjmp	.+1554   	; 0x226e <__umoddi3+0xcd6>
    1c5c:	00 e0       	ldi	r16, 0x00	; 0
    1c5e:	a0 16       	cp	r10, r16
    1c60:	00 e0       	ldi	r16, 0x00	; 0
    1c62:	b0 06       	cpc	r11, r16
    1c64:	01 e0       	ldi	r16, 0x01	; 1
    1c66:	c0 06       	cpc	r12, r16
    1c68:	00 e0       	ldi	r16, 0x00	; 0
    1c6a:	d0 06       	cpc	r13, r16
    1c6c:	88 f4       	brcc	.+34     	; 0x1c90 <__umoddi3+0x6f8>
    1c6e:	1f ef       	ldi	r17, 0xFF	; 255
    1c70:	a1 16       	cp	r10, r17
    1c72:	b1 04       	cpc	r11, r1
    1c74:	c1 04       	cpc	r12, r1
    1c76:	d1 04       	cpc	r13, r1
    1c78:	39 f0       	breq	.+14     	; 0x1c88 <__umoddi3+0x6f0>
    1c7a:	30 f0       	brcs	.+12     	; 0x1c88 <__umoddi3+0x6f0>
    1c7c:	28 e0       	ldi	r18, 0x08	; 8
    1c7e:	e2 2e       	mov	r14, r18
    1c80:	f1 2c       	mov	r15, r1
    1c82:	01 2d       	mov	r16, r1
    1c84:	11 2d       	mov	r17, r1
    1c86:	18 c0       	rjmp	.+48     	; 0x1cb8 <__umoddi3+0x720>
    1c88:	ee 24       	eor	r14, r14
    1c8a:	ff 24       	eor	r15, r15
    1c8c:	87 01       	movw	r16, r14
    1c8e:	14 c0       	rjmp	.+40     	; 0x1cb8 <__umoddi3+0x720>
    1c90:	40 e0       	ldi	r20, 0x00	; 0
    1c92:	a4 16       	cp	r10, r20
    1c94:	40 e0       	ldi	r20, 0x00	; 0
    1c96:	b4 06       	cpc	r11, r20
    1c98:	40 e0       	ldi	r20, 0x00	; 0
    1c9a:	c4 06       	cpc	r12, r20
    1c9c:	41 e0       	ldi	r20, 0x01	; 1
    1c9e:	d4 06       	cpc	r13, r20
    1ca0:	30 f0       	brcs	.+12     	; 0x1cae <__umoddi3+0x716>
    1ca2:	98 e1       	ldi	r25, 0x18	; 24
    1ca4:	e9 2e       	mov	r14, r25
    1ca6:	f1 2c       	mov	r15, r1
    1ca8:	01 2d       	mov	r16, r1
    1caa:	11 2d       	mov	r17, r1
    1cac:	05 c0       	rjmp	.+10     	; 0x1cb8 <__umoddi3+0x720>
    1cae:	80 e1       	ldi	r24, 0x10	; 16
    1cb0:	e8 2e       	mov	r14, r24
    1cb2:	f1 2c       	mov	r15, r1
    1cb4:	01 2d       	mov	r16, r1
    1cb6:	11 2d       	mov	r17, r1
    1cb8:	d6 01       	movw	r26, r12
    1cba:	c5 01       	movw	r24, r10
    1cbc:	0e 2c       	mov	r0, r14
    1cbe:	04 c0       	rjmp	.+8      	; 0x1cc8 <__umoddi3+0x730>
    1cc0:	b6 95       	lsr	r27
    1cc2:	a7 95       	ror	r26
    1cc4:	97 95       	ror	r25
    1cc6:	87 95       	ror	r24
    1cc8:	0a 94       	dec	r0
    1cca:	d2 f7       	brpl	.-12     	; 0x1cc0 <__umoddi3+0x728>
    1ccc:	87 54       	subi	r24, 0x47	; 71
    1cce:	9f 4f       	sbci	r25, 0xFF	; 255
    1cd0:	dc 01       	movw	r26, r24
    1cd2:	2c 91       	ld	r18, X
    1cd4:	80 e2       	ldi	r24, 0x20	; 32
    1cd6:	90 e0       	ldi	r25, 0x00	; 0
    1cd8:	a0 e0       	ldi	r26, 0x00	; 0
    1cda:	b0 e0       	ldi	r27, 0x00	; 0
    1cdc:	8e 19       	sub	r24, r14
    1cde:	9f 09       	sbc	r25, r15
    1ce0:	a0 0b       	sbc	r26, r16
    1ce2:	b1 0b       	sbc	r27, r17
    1ce4:	82 1b       	sub	r24, r18
    1ce6:	91 09       	sbc	r25, r1
    1ce8:	a1 09       	sbc	r26, r1
    1cea:	b1 09       	sbc	r27, r1
    1cec:	00 97       	sbiw	r24, 0x00	; 0
    1cee:	a1 05       	cpc	r26, r1
    1cf0:	b1 05       	cpc	r27, r1
    1cf2:	09 f0       	breq	.+2      	; 0x1cf6 <__umoddi3+0x75e>
    1cf4:	4f c0       	rjmp	.+158    	; 0x1d94 <__umoddi3+0x7fc>
    1cf6:	a6 14       	cp	r10, r6
    1cf8:	b7 04       	cpc	r11, r7
    1cfa:	c8 04       	cpc	r12, r8
    1cfc:	d9 04       	cpc	r13, r9
    1cfe:	58 f0       	brcs	.+22     	; 0x1d16 <__umoddi3+0x77e>
    1d00:	6c 96       	adiw	r28, 0x1c	; 28
    1d02:	ec ac       	ldd	r14, Y+60	; 0x3c
    1d04:	fd ac       	ldd	r15, Y+61	; 0x3d
    1d06:	0e ad       	ldd	r16, Y+62	; 0x3e
    1d08:	1f ad       	ldd	r17, Y+63	; 0x3f
    1d0a:	6c 97       	sbiw	r28, 0x1c	; 28
    1d0c:	e2 14       	cp	r14, r2
    1d0e:	f3 04       	cpc	r15, r3
    1d10:	04 05       	cpc	r16, r4
    1d12:	15 05       	cpc	r17, r5
    1d14:	68 f1       	brcs	.+90     	; 0x1d70 <__umoddi3+0x7d8>
    1d16:	6c 96       	adiw	r28, 0x1c	; 28
    1d18:	ec ac       	ldd	r14, Y+60	; 0x3c
    1d1a:	fd ac       	ldd	r15, Y+61	; 0x3d
    1d1c:	0e ad       	ldd	r16, Y+62	; 0x3e
    1d1e:	1f ad       	ldd	r17, Y+63	; 0x3f
    1d20:	6c 97       	sbiw	r28, 0x1c	; 28
    1d22:	e2 18       	sub	r14, r2
    1d24:	f3 08       	sbc	r15, r3
    1d26:	04 09       	sbc	r16, r4
    1d28:	15 09       	sbc	r17, r5
    1d2a:	a4 01       	movw	r20, r8
    1d2c:	93 01       	movw	r18, r6
    1d2e:	2a 19       	sub	r18, r10
    1d30:	3b 09       	sbc	r19, r11
    1d32:	4c 09       	sbc	r20, r12
    1d34:	5d 09       	sbc	r21, r13
    1d36:	aa 24       	eor	r10, r10
    1d38:	bb 24       	eor	r11, r11
    1d3a:	65 01       	movw	r12, r10
    1d3c:	6c 96       	adiw	r28, 0x1c	; 28
    1d3e:	6c ad       	ldd	r22, Y+60	; 0x3c
    1d40:	7d ad       	ldd	r23, Y+61	; 0x3d
    1d42:	8e ad       	ldd	r24, Y+62	; 0x3e
    1d44:	9f ad       	ldd	r25, Y+63	; 0x3f
    1d46:	6c 97       	sbiw	r28, 0x1c	; 28
    1d48:	6e 15       	cp	r22, r14
    1d4a:	7f 05       	cpc	r23, r15
    1d4c:	80 07       	cpc	r24, r16
    1d4e:	91 07       	cpc	r25, r17
    1d50:	28 f4       	brcc	.+10     	; 0x1d5c <__umoddi3+0x7c4>
    1d52:	b1 e0       	ldi	r27, 0x01	; 1
    1d54:	ab 2e       	mov	r10, r27
    1d56:	b1 2c       	mov	r11, r1
    1d58:	c1 2c       	mov	r12, r1
    1d5a:	d1 2c       	mov	r13, r1
    1d5c:	da 01       	movw	r26, r20
    1d5e:	c9 01       	movw	r24, r18
    1d60:	8a 19       	sub	r24, r10
    1d62:	9b 09       	sbc	r25, r11
    1d64:	ac 09       	sbc	r26, r12
    1d66:	bd 09       	sbc	r27, r13
    1d68:	8d ab       	std	Y+53, r24	; 0x35
    1d6a:	9e ab       	std	Y+54, r25	; 0x36
    1d6c:	af ab       	std	Y+55, r26	; 0x37
    1d6e:	b8 af       	std	Y+56, r27	; 0x38
    1d70:	e9 8a       	std	Y+17, r14	; 0x11
    1d72:	fa 8a       	std	Y+18, r15	; 0x12
    1d74:	0b 8b       	std	Y+19, r16	; 0x13
    1d76:	1c 8b       	std	Y+20, r17	; 0x14
    1d78:	6d a8       	ldd	r6, Y+53	; 0x35
    1d7a:	7e a8       	ldd	r7, Y+54	; 0x36
    1d7c:	8f a8       	ldd	r8, Y+55	; 0x37
    1d7e:	98 ac       	ldd	r9, Y+56	; 0x38
    1d80:	6d 8a       	std	Y+21, r6	; 0x15
    1d82:	7e 8a       	std	Y+22, r7	; 0x16
    1d84:	8f 8a       	std	Y+23, r8	; 0x17
    1d86:	98 8e       	std	Y+24, r9	; 0x18
    1d88:	2e 2d       	mov	r18, r14
    1d8a:	3a 89       	ldd	r19, Y+18	; 0x12
    1d8c:	4b 89       	ldd	r20, Y+19	; 0x13
    1d8e:	5c 89       	ldd	r21, Y+20	; 0x14
    1d90:	6d a9       	ldd	r22, Y+53	; 0x35
    1d92:	6a c2       	rjmp	.+1236   	; 0x2268 <__umoddi3+0xcd0>
    1d94:	67 96       	adiw	r28, 0x17	; 23
    1d96:	8f af       	std	Y+63, r24	; 0x3f
    1d98:	67 97       	sbiw	r28, 0x17	; 23
    1d9a:	a6 01       	movw	r20, r12
    1d9c:	95 01       	movw	r18, r10
    1d9e:	08 2e       	mov	r0, r24
    1da0:	04 c0       	rjmp	.+8      	; 0x1daa <__umoddi3+0x812>
    1da2:	22 0f       	add	r18, r18
    1da4:	33 1f       	adc	r19, r19
    1da6:	44 1f       	adc	r20, r20
    1da8:	55 1f       	adc	r21, r21
    1daa:	0a 94       	dec	r0
    1dac:	d2 f7       	brpl	.-12     	; 0x1da2 <__umoddi3+0x80a>
    1dae:	a0 e2       	ldi	r26, 0x20	; 32
    1db0:	aa 2e       	mov	r10, r26
    1db2:	a8 1a       	sub	r10, r24
    1db4:	66 96       	adiw	r28, 0x16	; 22
    1db6:	af ae       	std	Y+63, r10	; 0x3f
    1db8:	66 97       	sbiw	r28, 0x16	; 22
    1dba:	d2 01       	movw	r26, r4
    1dbc:	c1 01       	movw	r24, r2
    1dbe:	04 c0       	rjmp	.+8      	; 0x1dc8 <__umoddi3+0x830>
    1dc0:	b6 95       	lsr	r27
    1dc2:	a7 95       	ror	r26
    1dc4:	97 95       	ror	r25
    1dc6:	87 95       	ror	r24
    1dc8:	aa 94       	dec	r10
    1dca:	d2 f7       	brpl	.-12     	; 0x1dc0 <__umoddi3+0x828>
    1dcc:	6c 01       	movw	r12, r24
    1dce:	7d 01       	movw	r14, r26
    1dd0:	c2 2a       	or	r12, r18
    1dd2:	d3 2a       	or	r13, r19
    1dd4:	e4 2a       	or	r14, r20
    1dd6:	f5 2a       	or	r15, r21
    1dd8:	c9 a6       	std	Y+41, r12	; 0x29
    1dda:	da a6       	std	Y+42, r13	; 0x2a
    1ddc:	eb a6       	std	Y+43, r14	; 0x2b
    1dde:	fc a6       	std	Y+44, r15	; 0x2c
    1de0:	82 01       	movw	r16, r4
    1de2:	71 01       	movw	r14, r2
    1de4:	67 96       	adiw	r28, 0x17	; 23
    1de6:	0f ac       	ldd	r0, Y+63	; 0x3f
    1de8:	67 97       	sbiw	r28, 0x17	; 23
    1dea:	04 c0       	rjmp	.+8      	; 0x1df4 <__umoddi3+0x85c>
    1dec:	ee 0c       	add	r14, r14
    1dee:	ff 1c       	adc	r15, r15
    1df0:	00 1f       	adc	r16, r16
    1df2:	11 1f       	adc	r17, r17
    1df4:	0a 94       	dec	r0
    1df6:	d2 f7       	brpl	.-12     	; 0x1dec <__umoddi3+0x854>
    1df8:	ed a2       	std	Y+37, r14	; 0x25
    1dfa:	fe a2       	std	Y+38, r15	; 0x26
    1dfc:	0f a3       	std	Y+39, r16	; 0x27
    1dfe:	18 a7       	std	Y+40, r17	; 0x28
    1e00:	64 01       	movw	r12, r8
    1e02:	53 01       	movw	r10, r6
    1e04:	66 96       	adiw	r28, 0x16	; 22
    1e06:	0f ac       	ldd	r0, Y+63	; 0x3f
    1e08:	66 97       	sbiw	r28, 0x16	; 22
    1e0a:	04 c0       	rjmp	.+8      	; 0x1e14 <__umoddi3+0x87c>
    1e0c:	d6 94       	lsr	r13
    1e0e:	c7 94       	ror	r12
    1e10:	b7 94       	ror	r11
    1e12:	a7 94       	ror	r10
    1e14:	0a 94       	dec	r0
    1e16:	d2 f7       	brpl	.-12     	; 0x1e0c <__umoddi3+0x874>
    1e18:	a4 01       	movw	r20, r8
    1e1a:	93 01       	movw	r18, r6
    1e1c:	67 96       	adiw	r28, 0x17	; 23
    1e1e:	0f ac       	ldd	r0, Y+63	; 0x3f
    1e20:	67 97       	sbiw	r28, 0x17	; 23
    1e22:	04 c0       	rjmp	.+8      	; 0x1e2c <__umoddi3+0x894>
    1e24:	22 0f       	add	r18, r18
    1e26:	33 1f       	adc	r19, r19
    1e28:	44 1f       	adc	r20, r20
    1e2a:	55 1f       	adc	r21, r21
    1e2c:	0a 94       	dec	r0
    1e2e:	d2 f7       	brpl	.-12     	; 0x1e24 <__umoddi3+0x88c>
    1e30:	6c 96       	adiw	r28, 0x1c	; 28
    1e32:	8c ad       	ldd	r24, Y+60	; 0x3c
    1e34:	9d ad       	ldd	r25, Y+61	; 0x3d
    1e36:	ae ad       	ldd	r26, Y+62	; 0x3e
    1e38:	bf ad       	ldd	r27, Y+63	; 0x3f
    1e3a:	6c 97       	sbiw	r28, 0x1c	; 28
    1e3c:	66 96       	adiw	r28, 0x16	; 22
    1e3e:	0f ac       	ldd	r0, Y+63	; 0x3f
    1e40:	66 97       	sbiw	r28, 0x16	; 22
    1e42:	04 c0       	rjmp	.+8      	; 0x1e4c <__umoddi3+0x8b4>
    1e44:	b6 95       	lsr	r27
    1e46:	a7 95       	ror	r26
    1e48:	97 95       	ror	r25
    1e4a:	87 95       	ror	r24
    1e4c:	0a 94       	dec	r0
    1e4e:	d2 f7       	brpl	.-12     	; 0x1e44 <__umoddi3+0x8ac>
    1e50:	3c 01       	movw	r6, r24
    1e52:	4d 01       	movw	r8, r26
    1e54:	62 2a       	or	r6, r18
    1e56:	73 2a       	or	r7, r19
    1e58:	84 2a       	or	r8, r20
    1e5a:	95 2a       	or	r9, r21
    1e5c:	69 a2       	std	Y+33, r6	; 0x21
    1e5e:	7a a2       	std	Y+34, r7	; 0x22
    1e60:	8b a2       	std	Y+35, r8	; 0x23
    1e62:	9c a2       	std	Y+36, r9	; 0x24
    1e64:	6c 96       	adiw	r28, 0x1c	; 28
    1e66:	ec ac       	ldd	r14, Y+60	; 0x3c
    1e68:	fd ac       	ldd	r15, Y+61	; 0x3d
    1e6a:	0e ad       	ldd	r16, Y+62	; 0x3e
    1e6c:	1f ad       	ldd	r17, Y+63	; 0x3f
    1e6e:	6c 97       	sbiw	r28, 0x1c	; 28
    1e70:	67 96       	adiw	r28, 0x17	; 23
    1e72:	0f ac       	ldd	r0, Y+63	; 0x3f
    1e74:	67 97       	sbiw	r28, 0x17	; 23
    1e76:	04 c0       	rjmp	.+8      	; 0x1e80 <__umoddi3+0x8e8>
    1e78:	ee 0c       	add	r14, r14
    1e7a:	ff 1c       	adc	r15, r15
    1e7c:	00 1f       	adc	r16, r16
    1e7e:	11 1f       	adc	r17, r17
    1e80:	0a 94       	dec	r0
    1e82:	d2 f7       	brpl	.-12     	; 0x1e78 <__umoddi3+0x8e0>
    1e84:	ed 8e       	std	Y+29, r14	; 0x1d
    1e86:	fe 8e       	std	Y+30, r15	; 0x1e
    1e88:	0f 8f       	std	Y+31, r16	; 0x1f
    1e8a:	18 a3       	std	Y+32, r17	; 0x20
    1e8c:	49 a5       	ldd	r20, Y+41	; 0x29
    1e8e:	5a a5       	ldd	r21, Y+42	; 0x2a
    1e90:	6b a5       	ldd	r22, Y+43	; 0x2b
    1e92:	7c a5       	ldd	r23, Y+44	; 0x2c
    1e94:	3b 01       	movw	r6, r22
    1e96:	88 24       	eor	r8, r8
    1e98:	99 24       	eor	r9, r9
    1e9a:	60 70       	andi	r22, 0x00	; 0
    1e9c:	70 70       	andi	r23, 0x00	; 0
    1e9e:	2d 96       	adiw	r28, 0x0d	; 13
    1ea0:	4c af       	std	Y+60, r20	; 0x3c
    1ea2:	5d af       	std	Y+61, r21	; 0x3d
    1ea4:	6e af       	std	Y+62, r22	; 0x3e
    1ea6:	7f af       	std	Y+63, r23	; 0x3f
    1ea8:	2d 97       	sbiw	r28, 0x0d	; 13
    1eaa:	c6 01       	movw	r24, r12
    1eac:	b5 01       	movw	r22, r10
    1eae:	a4 01       	movw	r20, r8
    1eb0:	93 01       	movw	r18, r6
    1eb2:	0e 94 f4 12 	call	0x25e8	; 0x25e8 <__udivmodsi4>
    1eb6:	7b 01       	movw	r14, r22
    1eb8:	8c 01       	movw	r16, r24
    1eba:	c6 01       	movw	r24, r12
    1ebc:	b5 01       	movw	r22, r10
    1ebe:	a4 01       	movw	r20, r8
    1ec0:	93 01       	movw	r18, r6
    1ec2:	0e 94 f4 12 	call	0x25e8	; 0x25e8 <__udivmodsi4>
    1ec6:	c9 01       	movw	r24, r18
    1ec8:	da 01       	movw	r26, r20
    1eca:	1c 01       	movw	r2, r24
    1ecc:	2d 01       	movw	r4, r26
    1ece:	c2 01       	movw	r24, r4
    1ed0:	b1 01       	movw	r22, r2
    1ed2:	2d 96       	adiw	r28, 0x0d	; 13
    1ed4:	2c ad       	ldd	r18, Y+60	; 0x3c
    1ed6:	3d ad       	ldd	r19, Y+61	; 0x3d
    1ed8:	4e ad       	ldd	r20, Y+62	; 0x3e
    1eda:	5f ad       	ldd	r21, Y+63	; 0x3f
    1edc:	2d 97       	sbiw	r28, 0x0d	; 13
    1ede:	0e 94 d5 12 	call	0x25aa	; 0x25aa <__mulsi3>
    1ee2:	9b 01       	movw	r18, r22
    1ee4:	ac 01       	movw	r20, r24
    1ee6:	87 01       	movw	r16, r14
    1ee8:	ff 24       	eor	r15, r15
    1eea:	ee 24       	eor	r14, r14
    1eec:	a9 a0       	ldd	r10, Y+33	; 0x21
    1eee:	ba a0       	ldd	r11, Y+34	; 0x22
    1ef0:	cb a0       	ldd	r12, Y+35	; 0x23
    1ef2:	dc a0       	ldd	r13, Y+36	; 0x24
    1ef4:	c6 01       	movw	r24, r12
    1ef6:	aa 27       	eor	r26, r26
    1ef8:	bb 27       	eor	r27, r27
    1efa:	57 01       	movw	r10, r14
    1efc:	68 01       	movw	r12, r16
    1efe:	a8 2a       	or	r10, r24
    1f00:	b9 2a       	or	r11, r25
    1f02:	ca 2a       	or	r12, r26
    1f04:	db 2a       	or	r13, r27
    1f06:	a2 16       	cp	r10, r18
    1f08:	b3 06       	cpc	r11, r19
    1f0a:	c4 06       	cpc	r12, r20
    1f0c:	d5 06       	cpc	r13, r21
    1f0e:	00 f5       	brcc	.+64     	; 0x1f50 <__umoddi3+0x9b8>
    1f10:	08 94       	sec
    1f12:	21 08       	sbc	r2, r1
    1f14:	31 08       	sbc	r3, r1
    1f16:	41 08       	sbc	r4, r1
    1f18:	51 08       	sbc	r5, r1
    1f1a:	e9 a4       	ldd	r14, Y+41	; 0x29
    1f1c:	fa a4       	ldd	r15, Y+42	; 0x2a
    1f1e:	0b a5       	ldd	r16, Y+43	; 0x2b
    1f20:	1c a5       	ldd	r17, Y+44	; 0x2c
    1f22:	ae 0c       	add	r10, r14
    1f24:	bf 1c       	adc	r11, r15
    1f26:	c0 1e       	adc	r12, r16
    1f28:	d1 1e       	adc	r13, r17
    1f2a:	ae 14       	cp	r10, r14
    1f2c:	bf 04       	cpc	r11, r15
    1f2e:	c0 06       	cpc	r12, r16
    1f30:	d1 06       	cpc	r13, r17
    1f32:	70 f0       	brcs	.+28     	; 0x1f50 <__umoddi3+0x9b8>
    1f34:	a2 16       	cp	r10, r18
    1f36:	b3 06       	cpc	r11, r19
    1f38:	c4 06       	cpc	r12, r20
    1f3a:	d5 06       	cpc	r13, r21
    1f3c:	48 f4       	brcc	.+18     	; 0x1f50 <__umoddi3+0x9b8>
    1f3e:	08 94       	sec
    1f40:	21 08       	sbc	r2, r1
    1f42:	31 08       	sbc	r3, r1
    1f44:	41 08       	sbc	r4, r1
    1f46:	51 08       	sbc	r5, r1
    1f48:	ae 0c       	add	r10, r14
    1f4a:	bf 1c       	adc	r11, r15
    1f4c:	c0 1e       	adc	r12, r16
    1f4e:	d1 1e       	adc	r13, r17
    1f50:	a2 1a       	sub	r10, r18
    1f52:	b3 0a       	sbc	r11, r19
    1f54:	c4 0a       	sbc	r12, r20
    1f56:	d5 0a       	sbc	r13, r21
    1f58:	c6 01       	movw	r24, r12
    1f5a:	b5 01       	movw	r22, r10
    1f5c:	a4 01       	movw	r20, r8
    1f5e:	93 01       	movw	r18, r6
    1f60:	0e 94 f4 12 	call	0x25e8	; 0x25e8 <__udivmodsi4>
    1f64:	7b 01       	movw	r14, r22
    1f66:	8c 01       	movw	r16, r24
    1f68:	c6 01       	movw	r24, r12
    1f6a:	b5 01       	movw	r22, r10
    1f6c:	a4 01       	movw	r20, r8
    1f6e:	93 01       	movw	r18, r6
    1f70:	0e 94 f4 12 	call	0x25e8	; 0x25e8 <__udivmodsi4>
    1f74:	c9 01       	movw	r24, r18
    1f76:	da 01       	movw	r26, r20
    1f78:	3c 01       	movw	r6, r24
    1f7a:	4d 01       	movw	r8, r26
    1f7c:	c4 01       	movw	r24, r8
    1f7e:	b3 01       	movw	r22, r6
    1f80:	2d 96       	adiw	r28, 0x0d	; 13
    1f82:	2c ad       	ldd	r18, Y+60	; 0x3c
    1f84:	3d ad       	ldd	r19, Y+61	; 0x3d
    1f86:	4e ad       	ldd	r20, Y+62	; 0x3e
    1f88:	5f ad       	ldd	r21, Y+63	; 0x3f
    1f8a:	2d 97       	sbiw	r28, 0x0d	; 13
    1f8c:	0e 94 d5 12 	call	0x25aa	; 0x25aa <__mulsi3>
    1f90:	9b 01       	movw	r18, r22
    1f92:	ac 01       	movw	r20, r24
    1f94:	87 01       	movw	r16, r14
    1f96:	ff 24       	eor	r15, r15
    1f98:	ee 24       	eor	r14, r14
    1f9a:	89 a1       	ldd	r24, Y+33	; 0x21
    1f9c:	9a a1       	ldd	r25, Y+34	; 0x22
    1f9e:	ab a1       	ldd	r26, Y+35	; 0x23
    1fa0:	bc a1       	ldd	r27, Y+36	; 0x24
    1fa2:	a0 70       	andi	r26, 0x00	; 0
    1fa4:	b0 70       	andi	r27, 0x00	; 0
    1fa6:	57 01       	movw	r10, r14
    1fa8:	68 01       	movw	r12, r16
    1faa:	a8 2a       	or	r10, r24
    1fac:	b9 2a       	or	r11, r25
    1fae:	ca 2a       	or	r12, r26
    1fb0:	db 2a       	or	r13, r27
    1fb2:	a2 16       	cp	r10, r18
    1fb4:	b3 06       	cpc	r11, r19
    1fb6:	c4 06       	cpc	r12, r20
    1fb8:	d5 06       	cpc	r13, r21
    1fba:	00 f5       	brcc	.+64     	; 0x1ffc <__umoddi3+0xa64>
    1fbc:	08 94       	sec
    1fbe:	61 08       	sbc	r6, r1
    1fc0:	71 08       	sbc	r7, r1
    1fc2:	81 08       	sbc	r8, r1
    1fc4:	91 08       	sbc	r9, r1
    1fc6:	69 a5       	ldd	r22, Y+41	; 0x29
    1fc8:	7a a5       	ldd	r23, Y+42	; 0x2a
    1fca:	8b a5       	ldd	r24, Y+43	; 0x2b
    1fcc:	9c a5       	ldd	r25, Y+44	; 0x2c
    1fce:	a6 0e       	add	r10, r22
    1fd0:	b7 1e       	adc	r11, r23
    1fd2:	c8 1e       	adc	r12, r24
    1fd4:	d9 1e       	adc	r13, r25
    1fd6:	a6 16       	cp	r10, r22
    1fd8:	b7 06       	cpc	r11, r23
    1fda:	c8 06       	cpc	r12, r24
    1fdc:	d9 06       	cpc	r13, r25
    1fde:	70 f0       	brcs	.+28     	; 0x1ffc <__umoddi3+0xa64>
    1fe0:	a2 16       	cp	r10, r18
    1fe2:	b3 06       	cpc	r11, r19
    1fe4:	c4 06       	cpc	r12, r20
    1fe6:	d5 06       	cpc	r13, r21
    1fe8:	48 f4       	brcc	.+18     	; 0x1ffc <__umoddi3+0xa64>
    1fea:	08 94       	sec
    1fec:	61 08       	sbc	r6, r1
    1fee:	71 08       	sbc	r7, r1
    1ff0:	81 08       	sbc	r8, r1
    1ff2:	91 08       	sbc	r9, r1
    1ff4:	a6 0e       	add	r10, r22
    1ff6:	b7 1e       	adc	r11, r23
    1ff8:	c8 1e       	adc	r12, r24
    1ffa:	d9 1e       	adc	r13, r25
    1ffc:	d6 01       	movw	r26, r12
    1ffe:	c5 01       	movw	r24, r10
    2000:	82 1b       	sub	r24, r18
    2002:	93 0b       	sbc	r25, r19
    2004:	a4 0b       	sbc	r26, r20
    2006:	b5 0b       	sbc	r27, r21
    2008:	89 8f       	std	Y+25, r24	; 0x19
    200a:	9a 8f       	std	Y+26, r25	; 0x1a
    200c:	ab 8f       	std	Y+27, r26	; 0x1b
    200e:	bc 8f       	std	Y+28, r27	; 0x1c
    2010:	d1 01       	movw	r26, r2
    2012:	99 27       	eor	r25, r25
    2014:	88 27       	eor	r24, r24
    2016:	84 01       	movw	r16, r8
    2018:	73 01       	movw	r14, r6
    201a:	e8 2a       	or	r14, r24
    201c:	f9 2a       	or	r15, r25
    201e:	0a 2b       	or	r16, r26
    2020:	1b 2b       	or	r17, r27
    2022:	4f ef       	ldi	r20, 0xFF	; 255
    2024:	a4 2e       	mov	r10, r20
    2026:	4f ef       	ldi	r20, 0xFF	; 255
    2028:	b4 2e       	mov	r11, r20
    202a:	c1 2c       	mov	r12, r1
    202c:	d1 2c       	mov	r13, r1
    202e:	ae 20       	and	r10, r14
    2030:	bf 20       	and	r11, r15
    2032:	c0 22       	and	r12, r16
    2034:	d1 22       	and	r13, r17
    2036:	78 01       	movw	r14, r16
    2038:	00 27       	eor	r16, r16
    203a:	11 27       	eor	r17, r17
    203c:	6d a0       	ldd	r6, Y+37	; 0x25
    203e:	7e a0       	ldd	r7, Y+38	; 0x26
    2040:	8f a0       	ldd	r8, Y+39	; 0x27
    2042:	98 a4       	ldd	r9, Y+40	; 0x28
    2044:	4f ef       	ldi	r20, 0xFF	; 255
    2046:	5f ef       	ldi	r21, 0xFF	; 255
    2048:	60 e0       	ldi	r22, 0x00	; 0
    204a:	70 e0       	ldi	r23, 0x00	; 0
    204c:	64 22       	and	r6, r20
    204e:	75 22       	and	r7, r21
    2050:	86 22       	and	r8, r22
    2052:	97 22       	and	r9, r23
    2054:	8d a1       	ldd	r24, Y+37	; 0x25
    2056:	9e a1       	ldd	r25, Y+38	; 0x26
    2058:	af a1       	ldd	r26, Y+39	; 0x27
    205a:	b8 a5       	ldd	r27, Y+40	; 0x28
    205c:	bd 01       	movw	r22, r26
    205e:	88 27       	eor	r24, r24
    2060:	99 27       	eor	r25, r25
    2062:	65 96       	adiw	r28, 0x15	; 21
    2064:	6c af       	std	Y+60, r22	; 0x3c
    2066:	7d af       	std	Y+61, r23	; 0x3d
    2068:	8e af       	std	Y+62, r24	; 0x3e
    206a:	9f af       	std	Y+63, r25	; 0x3f
    206c:	65 97       	sbiw	r28, 0x15	; 21
    206e:	c6 01       	movw	r24, r12
    2070:	b5 01       	movw	r22, r10
    2072:	a4 01       	movw	r20, r8
    2074:	93 01       	movw	r18, r6
    2076:	0e 94 d5 12 	call	0x25aa	; 0x25aa <__mulsi3>
    207a:	61 96       	adiw	r28, 0x11	; 17
    207c:	6c af       	std	Y+60, r22	; 0x3c
    207e:	7d af       	std	Y+61, r23	; 0x3d
    2080:	8e af       	std	Y+62, r24	; 0x3e
    2082:	9f af       	std	Y+63, r25	; 0x3f
    2084:	61 97       	sbiw	r28, 0x11	; 17
    2086:	c6 01       	movw	r24, r12
    2088:	b5 01       	movw	r22, r10
    208a:	65 96       	adiw	r28, 0x15	; 21
    208c:	2c ad       	ldd	r18, Y+60	; 0x3c
    208e:	3d ad       	ldd	r19, Y+61	; 0x3d
    2090:	4e ad       	ldd	r20, Y+62	; 0x3e
    2092:	5f ad       	ldd	r21, Y+63	; 0x3f
    2094:	65 97       	sbiw	r28, 0x15	; 21
    2096:	0e 94 d5 12 	call	0x25aa	; 0x25aa <__mulsi3>
    209a:	1b 01       	movw	r2, r22
    209c:	2c 01       	movw	r4, r24
    209e:	c8 01       	movw	r24, r16
    20a0:	b7 01       	movw	r22, r14
    20a2:	a4 01       	movw	r20, r8
    20a4:	93 01       	movw	r18, r6
    20a6:	0e 94 d5 12 	call	0x25aa	; 0x25aa <__mulsi3>
    20aa:	5b 01       	movw	r10, r22
    20ac:	6c 01       	movw	r12, r24
    20ae:	c8 01       	movw	r24, r16
    20b0:	b7 01       	movw	r22, r14
    20b2:	65 96       	adiw	r28, 0x15	; 21
    20b4:	2c ad       	ldd	r18, Y+60	; 0x3c
    20b6:	3d ad       	ldd	r19, Y+61	; 0x3d
    20b8:	4e ad       	ldd	r20, Y+62	; 0x3e
    20ba:	5f ad       	ldd	r21, Y+63	; 0x3f
    20bc:	65 97       	sbiw	r28, 0x15	; 21
    20be:	0e 94 d5 12 	call	0x25aa	; 0x25aa <__mulsi3>
    20c2:	7b 01       	movw	r14, r22
    20c4:	8c 01       	movw	r16, r24
    20c6:	a6 01       	movw	r20, r12
    20c8:	95 01       	movw	r18, r10
    20ca:	22 0d       	add	r18, r2
    20cc:	33 1d       	adc	r19, r3
    20ce:	44 1d       	adc	r20, r4
    20d0:	55 1d       	adc	r21, r5
    20d2:	61 96       	adiw	r28, 0x11	; 17
    20d4:	6c ac       	ldd	r6, Y+60	; 0x3c
    20d6:	7d ac       	ldd	r7, Y+61	; 0x3d
    20d8:	8e ac       	ldd	r8, Y+62	; 0x3e
    20da:	9f ac       	ldd	r9, Y+63	; 0x3f
    20dc:	61 97       	sbiw	r28, 0x11	; 17
    20de:	c4 01       	movw	r24, r8
    20e0:	aa 27       	eor	r26, r26
    20e2:	bb 27       	eor	r27, r27
    20e4:	28 0f       	add	r18, r24
    20e6:	39 1f       	adc	r19, r25
    20e8:	4a 1f       	adc	r20, r26
    20ea:	5b 1f       	adc	r21, r27
    20ec:	2a 15       	cp	r18, r10
    20ee:	3b 05       	cpc	r19, r11
    20f0:	4c 05       	cpc	r20, r12
    20f2:	5d 05       	cpc	r21, r13
    20f4:	48 f4       	brcc	.+18     	; 0x2108 <__umoddi3+0xb70>
    20f6:	81 2c       	mov	r8, r1
    20f8:	91 2c       	mov	r9, r1
    20fa:	e1 e0       	ldi	r30, 0x01	; 1
    20fc:	ae 2e       	mov	r10, r30
    20fe:	b1 2c       	mov	r11, r1
    2100:	e8 0c       	add	r14, r8
    2102:	f9 1c       	adc	r15, r9
    2104:	0a 1d       	adc	r16, r10
    2106:	1b 1d       	adc	r17, r11
    2108:	ca 01       	movw	r24, r20
    210a:	aa 27       	eor	r26, r26
    210c:	bb 27       	eor	r27, r27
    210e:	57 01       	movw	r10, r14
    2110:	68 01       	movw	r12, r16
    2112:	a8 0e       	add	r10, r24
    2114:	b9 1e       	adc	r11, r25
    2116:	ca 1e       	adc	r12, r26
    2118:	db 1e       	adc	r13, r27
    211a:	a9 01       	movw	r20, r18
    211c:	33 27       	eor	r19, r19
    211e:	22 27       	eor	r18, r18
    2120:	61 96       	adiw	r28, 0x11	; 17
    2122:	8c ad       	ldd	r24, Y+60	; 0x3c
    2124:	9d ad       	ldd	r25, Y+61	; 0x3d
    2126:	ae ad       	ldd	r26, Y+62	; 0x3e
    2128:	bf ad       	ldd	r27, Y+63	; 0x3f
    212a:	61 97       	sbiw	r28, 0x11	; 17
    212c:	a0 70       	andi	r26, 0x00	; 0
    212e:	b0 70       	andi	r27, 0x00	; 0
    2130:	28 0f       	add	r18, r24
    2132:	39 1f       	adc	r19, r25
    2134:	4a 1f       	adc	r20, r26
    2136:	5b 1f       	adc	r21, r27
    2138:	e9 8c       	ldd	r14, Y+25	; 0x19
    213a:	fa 8c       	ldd	r15, Y+26	; 0x1a
    213c:	0b 8d       	ldd	r16, Y+27	; 0x1b
    213e:	1c 8d       	ldd	r17, Y+28	; 0x1c
    2140:	ea 14       	cp	r14, r10
    2142:	fb 04       	cpc	r15, r11
    2144:	0c 05       	cpc	r16, r12
    2146:	1d 05       	cpc	r17, r13
    2148:	70 f0       	brcs	.+28     	; 0x2166 <__umoddi3+0xbce>
    214a:	ae 14       	cp	r10, r14
    214c:	bf 04       	cpc	r11, r15
    214e:	c0 06       	cpc	r12, r16
    2150:	d1 06       	cpc	r13, r17
    2152:	69 f5       	brne	.+90     	; 0x21ae <__umoddi3+0xc16>
    2154:	6d 8d       	ldd	r22, Y+29	; 0x1d
    2156:	7e 8d       	ldd	r23, Y+30	; 0x1e
    2158:	8f 8d       	ldd	r24, Y+31	; 0x1f
    215a:	98 a1       	ldd	r25, Y+32	; 0x20
    215c:	62 17       	cp	r22, r18
    215e:	73 07       	cpc	r23, r19
    2160:	84 07       	cpc	r24, r20
    2162:	95 07       	cpc	r25, r21
    2164:	20 f5       	brcc	.+72     	; 0x21ae <__umoddi3+0xc16>
    2166:	da 01       	movw	r26, r20
    2168:	c9 01       	movw	r24, r18
    216a:	6d a0       	ldd	r6, Y+37	; 0x25
    216c:	7e a0       	ldd	r7, Y+38	; 0x26
    216e:	8f a0       	ldd	r8, Y+39	; 0x27
    2170:	98 a4       	ldd	r9, Y+40	; 0x28
    2172:	86 19       	sub	r24, r6
    2174:	97 09       	sbc	r25, r7
    2176:	a8 09       	sbc	r26, r8
    2178:	b9 09       	sbc	r27, r9
    217a:	e9 a4       	ldd	r14, Y+41	; 0x29
    217c:	fa a4       	ldd	r15, Y+42	; 0x2a
    217e:	0b a5       	ldd	r16, Y+43	; 0x2b
    2180:	1c a5       	ldd	r17, Y+44	; 0x2c
    2182:	ae 18       	sub	r10, r14
    2184:	bf 08       	sbc	r11, r15
    2186:	c0 0a       	sbc	r12, r16
    2188:	d1 0a       	sbc	r13, r17
    218a:	ee 24       	eor	r14, r14
    218c:	ff 24       	eor	r15, r15
    218e:	87 01       	movw	r16, r14
    2190:	28 17       	cp	r18, r24
    2192:	39 07       	cpc	r19, r25
    2194:	4a 07       	cpc	r20, r26
    2196:	5b 07       	cpc	r21, r27
    2198:	28 f4       	brcc	.+10     	; 0x21a4 <__umoddi3+0xc0c>
    219a:	21 e0       	ldi	r18, 0x01	; 1
    219c:	e2 2e       	mov	r14, r18
    219e:	f1 2c       	mov	r15, r1
    21a0:	01 2d       	mov	r16, r1
    21a2:	11 2d       	mov	r17, r1
    21a4:	ae 18       	sub	r10, r14
    21a6:	bf 08       	sbc	r11, r15
    21a8:	c0 0a       	sbc	r12, r16
    21aa:	d1 0a       	sbc	r13, r17
    21ac:	02 c0       	rjmp	.+4      	; 0x21b2 <__umoddi3+0xc1a>
    21ae:	da 01       	movw	r26, r20
    21b0:	c9 01       	movw	r24, r18
    21b2:	6d 8c       	ldd	r6, Y+29	; 0x1d
    21b4:	7e 8c       	ldd	r7, Y+30	; 0x1e
    21b6:	8f 8c       	ldd	r8, Y+31	; 0x1f
    21b8:	98 a0       	ldd	r9, Y+32	; 0x20
    21ba:	68 1a       	sub	r6, r24
    21bc:	79 0a       	sbc	r7, r25
    21be:	8a 0a       	sbc	r8, r26
    21c0:	9b 0a       	sbc	r9, r27
    21c2:	49 8d       	ldd	r20, Y+25	; 0x19
    21c4:	5a 8d       	ldd	r21, Y+26	; 0x1a
    21c6:	6b 8d       	ldd	r22, Y+27	; 0x1b
    21c8:	7c 8d       	ldd	r23, Y+28	; 0x1c
    21ca:	4a 19       	sub	r20, r10
    21cc:	5b 09       	sbc	r21, r11
    21ce:	6c 09       	sbc	r22, r12
    21d0:	7d 09       	sbc	r23, r13
    21d2:	5a 01       	movw	r10, r20
    21d4:	6b 01       	movw	r12, r22
    21d6:	22 24       	eor	r2, r2
    21d8:	33 24       	eor	r3, r3
    21da:	21 01       	movw	r4, r2
    21dc:	6d 8d       	ldd	r22, Y+29	; 0x1d
    21de:	7e 8d       	ldd	r23, Y+30	; 0x1e
    21e0:	8f 8d       	ldd	r24, Y+31	; 0x1f
    21e2:	98 a1       	ldd	r25, Y+32	; 0x20
    21e4:	66 15       	cp	r22, r6
    21e6:	77 05       	cpc	r23, r7
    21e8:	88 05       	cpc	r24, r8
    21ea:	99 05       	cpc	r25, r9
    21ec:	28 f4       	brcc	.+10     	; 0x21f8 <__umoddi3+0xc60>
    21ee:	81 e0       	ldi	r24, 0x01	; 1
    21f0:	28 2e       	mov	r2, r24
    21f2:	31 2c       	mov	r3, r1
    21f4:	41 2c       	mov	r4, r1
    21f6:	51 2c       	mov	r5, r1
    21f8:	86 01       	movw	r16, r12
    21fa:	75 01       	movw	r14, r10
    21fc:	e2 18       	sub	r14, r2
    21fe:	f3 08       	sbc	r15, r3
    2200:	04 09       	sbc	r16, r4
    2202:	15 09       	sbc	r17, r5
    2204:	a8 01       	movw	r20, r16
    2206:	97 01       	movw	r18, r14
    2208:	66 96       	adiw	r28, 0x16	; 22
    220a:	0f ac       	ldd	r0, Y+63	; 0x3f
    220c:	66 97       	sbiw	r28, 0x16	; 22
    220e:	04 c0       	rjmp	.+8      	; 0x2218 <__umoddi3+0xc80>
    2210:	22 0f       	add	r18, r18
    2212:	33 1f       	adc	r19, r19
    2214:	44 1f       	adc	r20, r20
    2216:	55 1f       	adc	r21, r21
    2218:	0a 94       	dec	r0
    221a:	d2 f7       	brpl	.-12     	; 0x2210 <__umoddi3+0xc78>
    221c:	d4 01       	movw	r26, r8
    221e:	c3 01       	movw	r24, r6
    2220:	67 96       	adiw	r28, 0x17	; 23
    2222:	0f ac       	ldd	r0, Y+63	; 0x3f
    2224:	67 97       	sbiw	r28, 0x17	; 23
    2226:	04 c0       	rjmp	.+8      	; 0x2230 <__umoddi3+0xc98>
    2228:	b6 95       	lsr	r27
    222a:	a7 95       	ror	r26
    222c:	97 95       	ror	r25
    222e:	87 95       	ror	r24
    2230:	0a 94       	dec	r0
    2232:	d2 f7       	brpl	.-12     	; 0x2228 <__umoddi3+0xc90>
    2234:	28 2b       	or	r18, r24
    2236:	39 2b       	or	r19, r25
    2238:	4a 2b       	or	r20, r26
    223a:	5b 2b       	or	r21, r27
    223c:	29 8b       	std	Y+17, r18	; 0x11
    223e:	3a 8b       	std	Y+18, r19	; 0x12
    2240:	4b 8b       	std	Y+19, r20	; 0x13
    2242:	5c 8b       	std	Y+20, r21	; 0x14
    2244:	67 96       	adiw	r28, 0x17	; 23
    2246:	0f ac       	ldd	r0, Y+63	; 0x3f
    2248:	67 97       	sbiw	r28, 0x17	; 23
    224a:	04 c0       	rjmp	.+8      	; 0x2254 <__umoddi3+0xcbc>
    224c:	16 95       	lsr	r17
    224e:	07 95       	ror	r16
    2250:	f7 94       	ror	r15
    2252:	e7 94       	ror	r14
    2254:	0a 94       	dec	r0
    2256:	d2 f7       	brpl	.-12     	; 0x224c <__umoddi3+0xcb4>
    2258:	ed 8a       	std	Y+21, r14	; 0x15
    225a:	fe 8a       	std	Y+22, r15	; 0x16
    225c:	0f 8b       	std	Y+23, r16	; 0x17
    225e:	18 8f       	std	Y+24, r17	; 0x18
    2260:	3a 89       	ldd	r19, Y+18	; 0x12
    2262:	4b 89       	ldd	r20, Y+19	; 0x13
    2264:	5c 89       	ldd	r21, Y+20	; 0x14
    2266:	6e 2d       	mov	r22, r14
    2268:	7e 89       	ldd	r23, Y+22	; 0x16
    226a:	8f 89       	ldd	r24, Y+23	; 0x17
    226c:	98 8d       	ldd	r25, Y+24	; 0x18
    226e:	c5 5a       	subi	r28, 0xA5	; 165
    2270:	df 4f       	sbci	r29, 0xFF	; 255
    2272:	e2 e1       	ldi	r30, 0x12	; 18
    2274:	0c 94 32 13 	jmp	0x2664	; 0x2664 <__epilogue_restores__>

00002278 <__divsf3>:
    2278:	0c d0       	rcall	.+24     	; 0x2292 <__divsf3x>
    227a:	e6 c0       	rjmp	.+460    	; 0x2448 <__fp_round>
    227c:	de d0       	rcall	.+444    	; 0x243a <__fp_pscB>
    227e:	40 f0       	brcs	.+16     	; 0x2290 <__divsf3+0x18>
    2280:	d5 d0       	rcall	.+426    	; 0x242c <__fp_pscA>
    2282:	30 f0       	brcs	.+12     	; 0x2290 <__divsf3+0x18>
    2284:	21 f4       	brne	.+8      	; 0x228e <__divsf3+0x16>
    2286:	5f 3f       	cpi	r21, 0xFF	; 255
    2288:	19 f0       	breq	.+6      	; 0x2290 <__divsf3+0x18>
    228a:	c7 c0       	rjmp	.+398    	; 0x241a <__fp_inf>
    228c:	51 11       	cpse	r21, r1
    228e:	10 c1       	rjmp	.+544    	; 0x24b0 <__fp_szero>
    2290:	ca c0       	rjmp	.+404    	; 0x2426 <__fp_nan>

00002292 <__divsf3x>:
    2292:	eb d0       	rcall	.+470    	; 0x246a <__fp_split3>
    2294:	98 f3       	brcs	.-26     	; 0x227c <__divsf3+0x4>

00002296 <__divsf3_pse>:
    2296:	99 23       	and	r25, r25
    2298:	c9 f3       	breq	.-14     	; 0x228c <__divsf3+0x14>
    229a:	55 23       	and	r21, r21
    229c:	b1 f3       	breq	.-20     	; 0x228a <__divsf3+0x12>
    229e:	95 1b       	sub	r25, r21
    22a0:	55 0b       	sbc	r21, r21
    22a2:	bb 27       	eor	r27, r27
    22a4:	aa 27       	eor	r26, r26
    22a6:	62 17       	cp	r22, r18
    22a8:	73 07       	cpc	r23, r19
    22aa:	84 07       	cpc	r24, r20
    22ac:	38 f0       	brcs	.+14     	; 0x22bc <__divsf3_pse+0x26>
    22ae:	9f 5f       	subi	r25, 0xFF	; 255
    22b0:	5f 4f       	sbci	r21, 0xFF	; 255
    22b2:	22 0f       	add	r18, r18
    22b4:	33 1f       	adc	r19, r19
    22b6:	44 1f       	adc	r20, r20
    22b8:	aa 1f       	adc	r26, r26
    22ba:	a9 f3       	breq	.-22     	; 0x22a6 <__divsf3_pse+0x10>
    22bc:	33 d0       	rcall	.+102    	; 0x2324 <__divsf3_pse+0x8e>
    22be:	0e 2e       	mov	r0, r30
    22c0:	3a f0       	brmi	.+14     	; 0x22d0 <__divsf3_pse+0x3a>
    22c2:	e0 e8       	ldi	r30, 0x80	; 128
    22c4:	30 d0       	rcall	.+96     	; 0x2326 <__divsf3_pse+0x90>
    22c6:	91 50       	subi	r25, 0x01	; 1
    22c8:	50 40       	sbci	r21, 0x00	; 0
    22ca:	e6 95       	lsr	r30
    22cc:	00 1c       	adc	r0, r0
    22ce:	ca f7       	brpl	.-14     	; 0x22c2 <__divsf3_pse+0x2c>
    22d0:	29 d0       	rcall	.+82     	; 0x2324 <__divsf3_pse+0x8e>
    22d2:	fe 2f       	mov	r31, r30
    22d4:	27 d0       	rcall	.+78     	; 0x2324 <__divsf3_pse+0x8e>
    22d6:	66 0f       	add	r22, r22
    22d8:	77 1f       	adc	r23, r23
    22da:	88 1f       	adc	r24, r24
    22dc:	bb 1f       	adc	r27, r27
    22de:	26 17       	cp	r18, r22
    22e0:	37 07       	cpc	r19, r23
    22e2:	48 07       	cpc	r20, r24
    22e4:	ab 07       	cpc	r26, r27
    22e6:	b0 e8       	ldi	r27, 0x80	; 128
    22e8:	09 f0       	breq	.+2      	; 0x22ec <__divsf3_pse+0x56>
    22ea:	bb 0b       	sbc	r27, r27
    22ec:	80 2d       	mov	r24, r0
    22ee:	bf 01       	movw	r22, r30
    22f0:	ff 27       	eor	r31, r31
    22f2:	93 58       	subi	r25, 0x83	; 131
    22f4:	5f 4f       	sbci	r21, 0xFF	; 255
    22f6:	2a f0       	brmi	.+10     	; 0x2302 <__divsf3_pse+0x6c>
    22f8:	9e 3f       	cpi	r25, 0xFE	; 254
    22fa:	51 05       	cpc	r21, r1
    22fc:	68 f0       	brcs	.+26     	; 0x2318 <__divsf3_pse+0x82>
    22fe:	8d c0       	rjmp	.+282    	; 0x241a <__fp_inf>
    2300:	d7 c0       	rjmp	.+430    	; 0x24b0 <__fp_szero>
    2302:	5f 3f       	cpi	r21, 0xFF	; 255
    2304:	ec f3       	brlt	.-6      	; 0x2300 <__divsf3_pse+0x6a>
    2306:	98 3e       	cpi	r25, 0xE8	; 232
    2308:	dc f3       	brlt	.-10     	; 0x2300 <__divsf3_pse+0x6a>
    230a:	86 95       	lsr	r24
    230c:	77 95       	ror	r23
    230e:	67 95       	ror	r22
    2310:	b7 95       	ror	r27
    2312:	f7 95       	ror	r31
    2314:	9f 5f       	subi	r25, 0xFF	; 255
    2316:	c9 f7       	brne	.-14     	; 0x230a <__divsf3_pse+0x74>
    2318:	88 0f       	add	r24, r24
    231a:	91 1d       	adc	r25, r1
    231c:	96 95       	lsr	r25
    231e:	87 95       	ror	r24
    2320:	97 f9       	bld	r25, 7
    2322:	08 95       	ret
    2324:	e1 e0       	ldi	r30, 0x01	; 1
    2326:	66 0f       	add	r22, r22
    2328:	77 1f       	adc	r23, r23
    232a:	88 1f       	adc	r24, r24
    232c:	bb 1f       	adc	r27, r27
    232e:	62 17       	cp	r22, r18
    2330:	73 07       	cpc	r23, r19
    2332:	84 07       	cpc	r24, r20
    2334:	ba 07       	cpc	r27, r26
    2336:	20 f0       	brcs	.+8      	; 0x2340 <__divsf3_pse+0xaa>
    2338:	62 1b       	sub	r22, r18
    233a:	73 0b       	sbc	r23, r19
    233c:	84 0b       	sbc	r24, r20
    233e:	ba 0b       	sbc	r27, r26
    2340:	ee 1f       	adc	r30, r30
    2342:	88 f7       	brcc	.-30     	; 0x2326 <__divsf3_pse+0x90>
    2344:	e0 95       	com	r30
    2346:	08 95       	ret

00002348 <__fixunssfsi>:
    2348:	98 d0       	rcall	.+304    	; 0x247a <__fp_splitA>
    234a:	88 f0       	brcs	.+34     	; 0x236e <__fixunssfsi+0x26>
    234c:	9f 57       	subi	r25, 0x7F	; 127
    234e:	90 f0       	brcs	.+36     	; 0x2374 <__fixunssfsi+0x2c>
    2350:	b9 2f       	mov	r27, r25
    2352:	99 27       	eor	r25, r25
    2354:	b7 51       	subi	r27, 0x17	; 23
    2356:	a0 f0       	brcs	.+40     	; 0x2380 <__fixunssfsi+0x38>
    2358:	d1 f0       	breq	.+52     	; 0x238e <__fixunssfsi+0x46>
    235a:	66 0f       	add	r22, r22
    235c:	77 1f       	adc	r23, r23
    235e:	88 1f       	adc	r24, r24
    2360:	99 1f       	adc	r25, r25
    2362:	1a f0       	brmi	.+6      	; 0x236a <__fixunssfsi+0x22>
    2364:	ba 95       	dec	r27
    2366:	c9 f7       	brne	.-14     	; 0x235a <__fixunssfsi+0x12>
    2368:	12 c0       	rjmp	.+36     	; 0x238e <__fixunssfsi+0x46>
    236a:	b1 30       	cpi	r27, 0x01	; 1
    236c:	81 f0       	breq	.+32     	; 0x238e <__fixunssfsi+0x46>
    236e:	9f d0       	rcall	.+318    	; 0x24ae <__fp_zero>
    2370:	b1 e0       	ldi	r27, 0x01	; 1
    2372:	08 95       	ret
    2374:	9c c0       	rjmp	.+312    	; 0x24ae <__fp_zero>
    2376:	67 2f       	mov	r22, r23
    2378:	78 2f       	mov	r23, r24
    237a:	88 27       	eor	r24, r24
    237c:	b8 5f       	subi	r27, 0xF8	; 248
    237e:	39 f0       	breq	.+14     	; 0x238e <__fixunssfsi+0x46>
    2380:	b9 3f       	cpi	r27, 0xF9	; 249
    2382:	cc f3       	brlt	.-14     	; 0x2376 <__fixunssfsi+0x2e>
    2384:	86 95       	lsr	r24
    2386:	77 95       	ror	r23
    2388:	67 95       	ror	r22
    238a:	b3 95       	inc	r27
    238c:	d9 f7       	brne	.-10     	; 0x2384 <__fixunssfsi+0x3c>
    238e:	3e f4       	brtc	.+14     	; 0x239e <__fixunssfsi+0x56>
    2390:	90 95       	com	r25
    2392:	80 95       	com	r24
    2394:	70 95       	com	r23
    2396:	61 95       	neg	r22
    2398:	7f 4f       	sbci	r23, 0xFF	; 255
    239a:	8f 4f       	sbci	r24, 0xFF	; 255
    239c:	9f 4f       	sbci	r25, 0xFF	; 255
    239e:	08 95       	ret

000023a0 <__floatunsisf>:
    23a0:	e8 94       	clt
    23a2:	09 c0       	rjmp	.+18     	; 0x23b6 <__floatsisf+0x12>

000023a4 <__floatsisf>:
    23a4:	97 fb       	bst	r25, 7
    23a6:	3e f4       	brtc	.+14     	; 0x23b6 <__floatsisf+0x12>
    23a8:	90 95       	com	r25
    23aa:	80 95       	com	r24
    23ac:	70 95       	com	r23
    23ae:	61 95       	neg	r22
    23b0:	7f 4f       	sbci	r23, 0xFF	; 255
    23b2:	8f 4f       	sbci	r24, 0xFF	; 255
    23b4:	9f 4f       	sbci	r25, 0xFF	; 255
    23b6:	99 23       	and	r25, r25
    23b8:	a9 f0       	breq	.+42     	; 0x23e4 <__floatsisf+0x40>
    23ba:	f9 2f       	mov	r31, r25
    23bc:	96 e9       	ldi	r25, 0x96	; 150
    23be:	bb 27       	eor	r27, r27
    23c0:	93 95       	inc	r25
    23c2:	f6 95       	lsr	r31
    23c4:	87 95       	ror	r24
    23c6:	77 95       	ror	r23
    23c8:	67 95       	ror	r22
    23ca:	b7 95       	ror	r27
    23cc:	f1 11       	cpse	r31, r1
    23ce:	f8 cf       	rjmp	.-16     	; 0x23c0 <__floatsisf+0x1c>
    23d0:	fa f4       	brpl	.+62     	; 0x2410 <__floatsisf+0x6c>
    23d2:	bb 0f       	add	r27, r27
    23d4:	11 f4       	brne	.+4      	; 0x23da <__floatsisf+0x36>
    23d6:	60 ff       	sbrs	r22, 0
    23d8:	1b c0       	rjmp	.+54     	; 0x2410 <__floatsisf+0x6c>
    23da:	6f 5f       	subi	r22, 0xFF	; 255
    23dc:	7f 4f       	sbci	r23, 0xFF	; 255
    23de:	8f 4f       	sbci	r24, 0xFF	; 255
    23e0:	9f 4f       	sbci	r25, 0xFF	; 255
    23e2:	16 c0       	rjmp	.+44     	; 0x2410 <__floatsisf+0x6c>
    23e4:	88 23       	and	r24, r24
    23e6:	11 f0       	breq	.+4      	; 0x23ec <__floatsisf+0x48>
    23e8:	96 e9       	ldi	r25, 0x96	; 150
    23ea:	11 c0       	rjmp	.+34     	; 0x240e <__floatsisf+0x6a>
    23ec:	77 23       	and	r23, r23
    23ee:	21 f0       	breq	.+8      	; 0x23f8 <__floatsisf+0x54>
    23f0:	9e e8       	ldi	r25, 0x8E	; 142
    23f2:	87 2f       	mov	r24, r23
    23f4:	76 2f       	mov	r23, r22
    23f6:	05 c0       	rjmp	.+10     	; 0x2402 <__floatsisf+0x5e>
    23f8:	66 23       	and	r22, r22
    23fa:	71 f0       	breq	.+28     	; 0x2418 <__floatsisf+0x74>
    23fc:	96 e8       	ldi	r25, 0x86	; 134
    23fe:	86 2f       	mov	r24, r22
    2400:	70 e0       	ldi	r23, 0x00	; 0
    2402:	60 e0       	ldi	r22, 0x00	; 0
    2404:	2a f0       	brmi	.+10     	; 0x2410 <__floatsisf+0x6c>
    2406:	9a 95       	dec	r25
    2408:	66 0f       	add	r22, r22
    240a:	77 1f       	adc	r23, r23
    240c:	88 1f       	adc	r24, r24
    240e:	da f7       	brpl	.-10     	; 0x2406 <__floatsisf+0x62>
    2410:	88 0f       	add	r24, r24
    2412:	96 95       	lsr	r25
    2414:	87 95       	ror	r24
    2416:	97 f9       	bld	r25, 7
    2418:	08 95       	ret

0000241a <__fp_inf>:
    241a:	97 f9       	bld	r25, 7
    241c:	9f 67       	ori	r25, 0x7F	; 127
    241e:	80 e8       	ldi	r24, 0x80	; 128
    2420:	70 e0       	ldi	r23, 0x00	; 0
    2422:	60 e0       	ldi	r22, 0x00	; 0
    2424:	08 95       	ret

00002426 <__fp_nan>:
    2426:	9f ef       	ldi	r25, 0xFF	; 255
    2428:	80 ec       	ldi	r24, 0xC0	; 192
    242a:	08 95       	ret

0000242c <__fp_pscA>:
    242c:	00 24       	eor	r0, r0
    242e:	0a 94       	dec	r0
    2430:	16 16       	cp	r1, r22
    2432:	17 06       	cpc	r1, r23
    2434:	18 06       	cpc	r1, r24
    2436:	09 06       	cpc	r0, r25
    2438:	08 95       	ret

0000243a <__fp_pscB>:
    243a:	00 24       	eor	r0, r0
    243c:	0a 94       	dec	r0
    243e:	12 16       	cp	r1, r18
    2440:	13 06       	cpc	r1, r19
    2442:	14 06       	cpc	r1, r20
    2444:	05 06       	cpc	r0, r21
    2446:	08 95       	ret

00002448 <__fp_round>:
    2448:	09 2e       	mov	r0, r25
    244a:	03 94       	inc	r0
    244c:	00 0c       	add	r0, r0
    244e:	11 f4       	brne	.+4      	; 0x2454 <__fp_round+0xc>
    2450:	88 23       	and	r24, r24
    2452:	52 f0       	brmi	.+20     	; 0x2468 <__fp_round+0x20>
    2454:	bb 0f       	add	r27, r27
    2456:	40 f4       	brcc	.+16     	; 0x2468 <__fp_round+0x20>
    2458:	bf 2b       	or	r27, r31
    245a:	11 f4       	brne	.+4      	; 0x2460 <__fp_round+0x18>
    245c:	60 ff       	sbrs	r22, 0
    245e:	04 c0       	rjmp	.+8      	; 0x2468 <__fp_round+0x20>
    2460:	6f 5f       	subi	r22, 0xFF	; 255
    2462:	7f 4f       	sbci	r23, 0xFF	; 255
    2464:	8f 4f       	sbci	r24, 0xFF	; 255
    2466:	9f 4f       	sbci	r25, 0xFF	; 255
    2468:	08 95       	ret

0000246a <__fp_split3>:
    246a:	57 fd       	sbrc	r21, 7
    246c:	90 58       	subi	r25, 0x80	; 128
    246e:	44 0f       	add	r20, r20
    2470:	55 1f       	adc	r21, r21
    2472:	59 f0       	breq	.+22     	; 0x248a <__fp_splitA+0x10>
    2474:	5f 3f       	cpi	r21, 0xFF	; 255
    2476:	71 f0       	breq	.+28     	; 0x2494 <__fp_splitA+0x1a>
    2478:	47 95       	ror	r20

0000247a <__fp_splitA>:
    247a:	88 0f       	add	r24, r24
    247c:	97 fb       	bst	r25, 7
    247e:	99 1f       	adc	r25, r25
    2480:	61 f0       	breq	.+24     	; 0x249a <__fp_splitA+0x20>
    2482:	9f 3f       	cpi	r25, 0xFF	; 255
    2484:	79 f0       	breq	.+30     	; 0x24a4 <__fp_splitA+0x2a>
    2486:	87 95       	ror	r24
    2488:	08 95       	ret
    248a:	12 16       	cp	r1, r18
    248c:	13 06       	cpc	r1, r19
    248e:	14 06       	cpc	r1, r20
    2490:	55 1f       	adc	r21, r21
    2492:	f2 cf       	rjmp	.-28     	; 0x2478 <__fp_split3+0xe>
    2494:	46 95       	lsr	r20
    2496:	f1 df       	rcall	.-30     	; 0x247a <__fp_splitA>
    2498:	08 c0       	rjmp	.+16     	; 0x24aa <__fp_splitA+0x30>
    249a:	16 16       	cp	r1, r22
    249c:	17 06       	cpc	r1, r23
    249e:	18 06       	cpc	r1, r24
    24a0:	99 1f       	adc	r25, r25
    24a2:	f1 cf       	rjmp	.-30     	; 0x2486 <__fp_splitA+0xc>
    24a4:	86 95       	lsr	r24
    24a6:	71 05       	cpc	r23, r1
    24a8:	61 05       	cpc	r22, r1
    24aa:	08 94       	sec
    24ac:	08 95       	ret

000024ae <__fp_zero>:
    24ae:	e8 94       	clt

000024b0 <__fp_szero>:
    24b0:	bb 27       	eor	r27, r27
    24b2:	66 27       	eor	r22, r22
    24b4:	77 27       	eor	r23, r23
    24b6:	cb 01       	movw	r24, r22
    24b8:	97 f9       	bld	r25, 7
    24ba:	08 95       	ret

000024bc <__mulsf3>:
    24bc:	0b d0       	rcall	.+22     	; 0x24d4 <__mulsf3x>
    24be:	c4 cf       	rjmp	.-120    	; 0x2448 <__fp_round>
    24c0:	b5 df       	rcall	.-150    	; 0x242c <__fp_pscA>
    24c2:	28 f0       	brcs	.+10     	; 0x24ce <__mulsf3+0x12>
    24c4:	ba df       	rcall	.-140    	; 0x243a <__fp_pscB>
    24c6:	18 f0       	brcs	.+6      	; 0x24ce <__mulsf3+0x12>
    24c8:	95 23       	and	r25, r21
    24ca:	09 f0       	breq	.+2      	; 0x24ce <__mulsf3+0x12>
    24cc:	a6 cf       	rjmp	.-180    	; 0x241a <__fp_inf>
    24ce:	ab cf       	rjmp	.-170    	; 0x2426 <__fp_nan>
    24d0:	11 24       	eor	r1, r1
    24d2:	ee cf       	rjmp	.-36     	; 0x24b0 <__fp_szero>

000024d4 <__mulsf3x>:
    24d4:	ca df       	rcall	.-108    	; 0x246a <__fp_split3>
    24d6:	a0 f3       	brcs	.-24     	; 0x24c0 <__mulsf3+0x4>

000024d8 <__mulsf3_pse>:
    24d8:	95 9f       	mul	r25, r21
    24da:	d1 f3       	breq	.-12     	; 0x24d0 <__mulsf3+0x14>
    24dc:	95 0f       	add	r25, r21
    24de:	50 e0       	ldi	r21, 0x00	; 0
    24e0:	55 1f       	adc	r21, r21
    24e2:	62 9f       	mul	r22, r18
    24e4:	f0 01       	movw	r30, r0
    24e6:	72 9f       	mul	r23, r18
    24e8:	bb 27       	eor	r27, r27
    24ea:	f0 0d       	add	r31, r0
    24ec:	b1 1d       	adc	r27, r1
    24ee:	63 9f       	mul	r22, r19
    24f0:	aa 27       	eor	r26, r26
    24f2:	f0 0d       	add	r31, r0
    24f4:	b1 1d       	adc	r27, r1
    24f6:	aa 1f       	adc	r26, r26
    24f8:	64 9f       	mul	r22, r20
    24fa:	66 27       	eor	r22, r22
    24fc:	b0 0d       	add	r27, r0
    24fe:	a1 1d       	adc	r26, r1
    2500:	66 1f       	adc	r22, r22
    2502:	82 9f       	mul	r24, r18
    2504:	22 27       	eor	r18, r18
    2506:	b0 0d       	add	r27, r0
    2508:	a1 1d       	adc	r26, r1
    250a:	62 1f       	adc	r22, r18
    250c:	73 9f       	mul	r23, r19
    250e:	b0 0d       	add	r27, r0
    2510:	a1 1d       	adc	r26, r1
    2512:	62 1f       	adc	r22, r18
    2514:	83 9f       	mul	r24, r19
    2516:	a0 0d       	add	r26, r0
    2518:	61 1d       	adc	r22, r1
    251a:	22 1f       	adc	r18, r18
    251c:	74 9f       	mul	r23, r20
    251e:	33 27       	eor	r19, r19
    2520:	a0 0d       	add	r26, r0
    2522:	61 1d       	adc	r22, r1
    2524:	23 1f       	adc	r18, r19
    2526:	84 9f       	mul	r24, r20
    2528:	60 0d       	add	r22, r0
    252a:	21 1d       	adc	r18, r1
    252c:	82 2f       	mov	r24, r18
    252e:	76 2f       	mov	r23, r22
    2530:	6a 2f       	mov	r22, r26
    2532:	11 24       	eor	r1, r1
    2534:	9f 57       	subi	r25, 0x7F	; 127
    2536:	50 40       	sbci	r21, 0x00	; 0
    2538:	8a f0       	brmi	.+34     	; 0x255c <__mulsf3_pse+0x84>
    253a:	e1 f0       	breq	.+56     	; 0x2574 <__mulsf3_pse+0x9c>
    253c:	88 23       	and	r24, r24
    253e:	4a f0       	brmi	.+18     	; 0x2552 <__mulsf3_pse+0x7a>
    2540:	ee 0f       	add	r30, r30
    2542:	ff 1f       	adc	r31, r31
    2544:	bb 1f       	adc	r27, r27
    2546:	66 1f       	adc	r22, r22
    2548:	77 1f       	adc	r23, r23
    254a:	88 1f       	adc	r24, r24
    254c:	91 50       	subi	r25, 0x01	; 1
    254e:	50 40       	sbci	r21, 0x00	; 0
    2550:	a9 f7       	brne	.-22     	; 0x253c <__mulsf3_pse+0x64>
    2552:	9e 3f       	cpi	r25, 0xFE	; 254
    2554:	51 05       	cpc	r21, r1
    2556:	70 f0       	brcs	.+28     	; 0x2574 <__mulsf3_pse+0x9c>
    2558:	60 cf       	rjmp	.-320    	; 0x241a <__fp_inf>
    255a:	aa cf       	rjmp	.-172    	; 0x24b0 <__fp_szero>
    255c:	5f 3f       	cpi	r21, 0xFF	; 255
    255e:	ec f3       	brlt	.-6      	; 0x255a <__mulsf3_pse+0x82>
    2560:	98 3e       	cpi	r25, 0xE8	; 232
    2562:	dc f3       	brlt	.-10     	; 0x255a <__mulsf3_pse+0x82>
    2564:	86 95       	lsr	r24
    2566:	77 95       	ror	r23
    2568:	67 95       	ror	r22
    256a:	b7 95       	ror	r27
    256c:	f7 95       	ror	r31
    256e:	e7 95       	ror	r30
    2570:	9f 5f       	subi	r25, 0xFF	; 255
    2572:	c1 f7       	brne	.-16     	; 0x2564 <__mulsf3_pse+0x8c>
    2574:	fe 2b       	or	r31, r30
    2576:	88 0f       	add	r24, r24
    2578:	91 1d       	adc	r25, r1
    257a:	96 95       	lsr	r25
    257c:	87 95       	ror	r24
    257e:	97 f9       	bld	r25, 7
    2580:	08 95       	ret

00002582 <__udivmodhi4>:
    2582:	aa 1b       	sub	r26, r26
    2584:	bb 1b       	sub	r27, r27
    2586:	51 e1       	ldi	r21, 0x11	; 17
    2588:	07 c0       	rjmp	.+14     	; 0x2598 <__udivmodhi4_ep>

0000258a <__udivmodhi4_loop>:
    258a:	aa 1f       	adc	r26, r26
    258c:	bb 1f       	adc	r27, r27
    258e:	a6 17       	cp	r26, r22
    2590:	b7 07       	cpc	r27, r23
    2592:	10 f0       	brcs	.+4      	; 0x2598 <__udivmodhi4_ep>
    2594:	a6 1b       	sub	r26, r22
    2596:	b7 0b       	sbc	r27, r23

00002598 <__udivmodhi4_ep>:
    2598:	88 1f       	adc	r24, r24
    259a:	99 1f       	adc	r25, r25
    259c:	5a 95       	dec	r21
    259e:	a9 f7       	brne	.-22     	; 0x258a <__udivmodhi4_loop>
    25a0:	80 95       	com	r24
    25a2:	90 95       	com	r25
    25a4:	bc 01       	movw	r22, r24
    25a6:	cd 01       	movw	r24, r26
    25a8:	08 95       	ret

000025aa <__mulsi3>:
    25aa:	62 9f       	mul	r22, r18
    25ac:	d0 01       	movw	r26, r0
    25ae:	73 9f       	mul	r23, r19
    25b0:	f0 01       	movw	r30, r0
    25b2:	82 9f       	mul	r24, r18
    25b4:	e0 0d       	add	r30, r0
    25b6:	f1 1d       	adc	r31, r1
    25b8:	64 9f       	mul	r22, r20
    25ba:	e0 0d       	add	r30, r0
    25bc:	f1 1d       	adc	r31, r1
    25be:	92 9f       	mul	r25, r18
    25c0:	f0 0d       	add	r31, r0
    25c2:	83 9f       	mul	r24, r19
    25c4:	f0 0d       	add	r31, r0
    25c6:	74 9f       	mul	r23, r20
    25c8:	f0 0d       	add	r31, r0
    25ca:	65 9f       	mul	r22, r21
    25cc:	f0 0d       	add	r31, r0
    25ce:	99 27       	eor	r25, r25
    25d0:	72 9f       	mul	r23, r18
    25d2:	b0 0d       	add	r27, r0
    25d4:	e1 1d       	adc	r30, r1
    25d6:	f9 1f       	adc	r31, r25
    25d8:	63 9f       	mul	r22, r19
    25da:	b0 0d       	add	r27, r0
    25dc:	e1 1d       	adc	r30, r1
    25de:	f9 1f       	adc	r31, r25
    25e0:	bd 01       	movw	r22, r26
    25e2:	cf 01       	movw	r24, r30
    25e4:	11 24       	eor	r1, r1
    25e6:	08 95       	ret

000025e8 <__udivmodsi4>:
    25e8:	a1 e2       	ldi	r26, 0x21	; 33
    25ea:	1a 2e       	mov	r1, r26
    25ec:	aa 1b       	sub	r26, r26
    25ee:	bb 1b       	sub	r27, r27
    25f0:	fd 01       	movw	r30, r26
    25f2:	0d c0       	rjmp	.+26     	; 0x260e <__udivmodsi4_ep>

000025f4 <__udivmodsi4_loop>:
    25f4:	aa 1f       	adc	r26, r26
    25f6:	bb 1f       	adc	r27, r27
    25f8:	ee 1f       	adc	r30, r30
    25fa:	ff 1f       	adc	r31, r31
    25fc:	a2 17       	cp	r26, r18
    25fe:	b3 07       	cpc	r27, r19
    2600:	e4 07       	cpc	r30, r20
    2602:	f5 07       	cpc	r31, r21
    2604:	20 f0       	brcs	.+8      	; 0x260e <__udivmodsi4_ep>
    2606:	a2 1b       	sub	r26, r18
    2608:	b3 0b       	sbc	r27, r19
    260a:	e4 0b       	sbc	r30, r20
    260c:	f5 0b       	sbc	r31, r21

0000260e <__udivmodsi4_ep>:
    260e:	66 1f       	adc	r22, r22
    2610:	77 1f       	adc	r23, r23
    2612:	88 1f       	adc	r24, r24
    2614:	99 1f       	adc	r25, r25
    2616:	1a 94       	dec	r1
    2618:	69 f7       	brne	.-38     	; 0x25f4 <__udivmodsi4_loop>
    261a:	60 95       	com	r22
    261c:	70 95       	com	r23
    261e:	80 95       	com	r24
    2620:	90 95       	com	r25
    2622:	9b 01       	movw	r18, r22
    2624:	ac 01       	movw	r20, r24
    2626:	bd 01       	movw	r22, r26
    2628:	cf 01       	movw	r24, r30
    262a:	08 95       	ret

0000262c <__prologue_saves__>:
    262c:	2f 92       	push	r2
    262e:	3f 92       	push	r3
    2630:	4f 92       	push	r4
    2632:	5f 92       	push	r5
    2634:	6f 92       	push	r6
    2636:	7f 92       	push	r7
    2638:	8f 92       	push	r8
    263a:	9f 92       	push	r9
    263c:	af 92       	push	r10
    263e:	bf 92       	push	r11
    2640:	cf 92       	push	r12
    2642:	df 92       	push	r13
    2644:	ef 92       	push	r14
    2646:	ff 92       	push	r15
    2648:	0f 93       	push	r16
    264a:	1f 93       	push	r17
    264c:	cf 93       	push	r28
    264e:	df 93       	push	r29
    2650:	cd b7       	in	r28, 0x3d	; 61
    2652:	de b7       	in	r29, 0x3e	; 62
    2654:	ca 1b       	sub	r28, r26
    2656:	db 0b       	sbc	r29, r27
    2658:	0f b6       	in	r0, 0x3f	; 63
    265a:	f8 94       	cli
    265c:	de bf       	out	0x3e, r29	; 62
    265e:	0f be       	out	0x3f, r0	; 63
    2660:	cd bf       	out	0x3d, r28	; 61
    2662:	09 94       	ijmp

00002664 <__epilogue_restores__>:
    2664:	2a 88       	ldd	r2, Y+18	; 0x12
    2666:	39 88       	ldd	r3, Y+17	; 0x11
    2668:	48 88       	ldd	r4, Y+16	; 0x10
    266a:	5f 84       	ldd	r5, Y+15	; 0x0f
    266c:	6e 84       	ldd	r6, Y+14	; 0x0e
    266e:	7d 84       	ldd	r7, Y+13	; 0x0d
    2670:	8c 84       	ldd	r8, Y+12	; 0x0c
    2672:	9b 84       	ldd	r9, Y+11	; 0x0b
    2674:	aa 84       	ldd	r10, Y+10	; 0x0a
    2676:	b9 84       	ldd	r11, Y+9	; 0x09
    2678:	c8 84       	ldd	r12, Y+8	; 0x08
    267a:	df 80       	ldd	r13, Y+7	; 0x07
    267c:	ee 80       	ldd	r14, Y+6	; 0x06
    267e:	fd 80       	ldd	r15, Y+5	; 0x05
    2680:	0c 81       	ldd	r16, Y+4	; 0x04
    2682:	1b 81       	ldd	r17, Y+3	; 0x03
    2684:	aa 81       	ldd	r26, Y+2	; 0x02
    2686:	b9 81       	ldd	r27, Y+1	; 0x01
    2688:	ce 0f       	add	r28, r30
    268a:	d1 1d       	adc	r29, r1
    268c:	0f b6       	in	r0, 0x3f	; 63
    268e:	f8 94       	cli
    2690:	de bf       	out	0x3e, r29	; 62
    2692:	0f be       	out	0x3f, r0	; 63
    2694:	cd bf       	out	0x3d, r28	; 61
    2696:	ed 01       	movw	r28, r26
    2698:	08 95       	ret

0000269a <_exit>:
    269a:	f8 94       	cli

0000269c <__stop_program>:
    269c:	ff cf       	rjmp	.-2      	; 0x269c <__stop_program>
